Archive member included to satisfy reference by file (symbol)

d:/program files (x86)/gnu tools arm embedded/5.4 2016q3/bin/../lib/gcc/arm-none-eabi/5.4.1/armv7-m\libgcc.a(_arm_addsubdf3.o)
                              CMakeFiles/PWM.elf.dir/USER/Src/main.c.obj (__aeabi_ui2d)
d:/program files (x86)/gnu tools arm embedded/5.4 2016q3/bin/../lib/gcc/arm-none-eabi/5.4.1/armv7-m\libgcc.a(_arm_muldivdf3.o)
                              CMakeFiles/PWM.elf.dir/USER/Src/main.c.obj (__aeabi_dmul)
d:/program files (x86)/gnu tools arm embedded/5.4 2016q3/bin/../lib/gcc/arm-none-eabi/5.4.1/armv7-m\libgcc.a(_arm_truncdfsf2.o)
                              CMakeFiles/PWM.elf.dir/USER/Src/main.c.obj (__aeabi_d2f)
d:/program files (x86)/gnu tools arm embedded/5.4 2016q3/bin/../lib/gcc/arm-none-eabi/5.4.1/armv7-m\libgcc.a(_arm_addsubsf3.o)
                              CMakeFiles/PWM.elf.dir/USER/Src/main.c.obj (__aeabi_fsub)
d:/program files (x86)/gnu tools arm embedded/5.4 2016q3/bin/../lib/gcc/arm-none-eabi/5.4.1/armv7-m\libgcc.a(_arm_muldivsf3.o)
                              CMakeFiles/PWM.elf.dir/USER/Src/main.c.obj (__aeabi_fmul)
d:/program files (x86)/gnu tools arm embedded/5.4 2016q3/bin/../lib/gcc/arm-none-eabi/5.4.1/armv7-m\libgcc.a(_arm_fixunssfsi.o)
                              CMakeFiles/PWM.elf.dir/USER/Src/main.c.obj (__aeabi_f2uiz)
d:/program files (x86)/gnu tools arm embedded/5.4 2016q3/bin/../lib/gcc/arm-none-eabi/5.4.1/../../../../arm-none-eabi/lib/armv7-m\libg_nano.a(lib_a-exit.o)
                              d:/program files (x86)/gnu tools arm embedded/5.4 2016q3/bin/../lib/gcc/arm-none-eabi/5.4.1/../../../../arm-none-eabi/lib/armv7-m/crt0.o (exit)
d:/program files (x86)/gnu tools arm embedded/5.4 2016q3/bin/../lib/gcc/arm-none-eabi/5.4.1/../../../../arm-none-eabi/lib/armv7-m\libg_nano.a(lib_a-impure.o)
                              d:/program files (x86)/gnu tools arm embedded/5.4 2016q3/bin/../lib/gcc/arm-none-eabi/5.4.1/../../../../arm-none-eabi/lib/armv7-m\libg_nano.a(lib_a-exit.o) (_global_impure_ptr)
d:/program files (x86)/gnu tools arm embedded/5.4 2016q3/bin/../lib/gcc/arm-none-eabi/5.4.1/../../../../arm-none-eabi/lib/armv7-m\libg_nano.a(lib_a-init.o)
                              d:/program files (x86)/gnu tools arm embedded/5.4 2016q3/bin/../lib/gcc/arm-none-eabi/5.4.1/../../../../arm-none-eabi/lib/armv7-m/crt0.o (__libc_init_array)
d:/program files (x86)/gnu tools arm embedded/5.4 2016q3/bin/../lib/gcc/arm-none-eabi/5.4.1/../../../../arm-none-eabi/lib/armv7-m\libg_nano.a(lib_a-memset.o)
                              d:/program files (x86)/gnu tools arm embedded/5.4 2016q3/bin/../lib/gcc/arm-none-eabi/5.4.1/../../../../arm-none-eabi/lib/armv7-m/crt0.o (memset)
d:/program files (x86)/gnu tools arm embedded/5.4 2016q3/bin/../lib/gcc/arm-none-eabi/5.4.1/../../../../arm-none-eabi/lib/armv7-m\libg_nano.a(lib_a-nano-vfprintf_float.o)
                              (_printf_float)
d:/program files (x86)/gnu tools arm embedded/5.4 2016q3/bin/../lib/gcc/arm-none-eabi/5.4.1/../../../../arm-none-eabi/lib/armv7-m\libg_nano.a(lib_a-nano-vfprintf_i.o)
                              d:/program files (x86)/gnu tools arm embedded/5.4 2016q3/bin/../lib/gcc/arm-none-eabi/5.4.1/../../../../arm-none-eabi/lib/armv7-m\libg_nano.a(lib_a-nano-vfprintf_float.o) (_printf_common)
d:/program files (x86)/gnu tools arm embedded/5.4 2016q3/bin/../lib/gcc/arm-none-eabi/5.4.1/../../../../arm-none-eabi/lib/armv7-m\libg_nano.a(lib_a-printf.o)
                              CMakeFiles/PWM.elf.dir/HARDWARE/Src/rtc.c.obj (printf)
d:/program files (x86)/gnu tools arm embedded/5.4 2016q3/bin/../lib/gcc/arm-none-eabi/5.4.1/../../../../arm-none-eabi/lib/armv7-m\libg_nano.a(lib_a-puts.o)
                              CMakeFiles/PWM.elf.dir/HARDWARE/Src/rtc.c.obj (puts)
d:/program files (x86)/gnu tools arm embedded/5.4 2016q3/bin/../lib/gcc/arm-none-eabi/5.4.1/../../../../arm-none-eabi/lib/armv7-m\libg_nano.a(lib_a-setvbuf.o)
                              CMakeFiles/PWM.elf.dir/SYSTEM/Src/usart.c.obj (setvbuf)
d:/program files (x86)/gnu tools arm embedded/5.4 2016q3/bin/../lib/gcc/arm-none-eabi/5.4.1/../../../../arm-none-eabi/lib/armv7-m\libg_nano.a(lib_a-strlen.o)
                              d:/program files (x86)/gnu tools arm embedded/5.4 2016q3/bin/../lib/gcc/arm-none-eabi/5.4.1/../../../../arm-none-eabi/lib/armv7-m\libg_nano.a(lib_a-nano-vfprintf_float.o) (strlen)
d:/program files (x86)/gnu tools arm embedded/5.4 2016q3/bin/../lib/gcc/arm-none-eabi/5.4.1/../../../../arm-none-eabi/lib/armv7-m\libg_nano.a(lib_a-wbuf.o)
                              d:/program files (x86)/gnu tools arm embedded/5.4 2016q3/bin/../lib/gcc/arm-none-eabi/5.4.1/../../../../arm-none-eabi/lib/armv7-m\libg_nano.a(lib_a-puts.o) (__swbuf_r)
d:/program files (x86)/gnu tools arm embedded/5.4 2016q3/bin/../lib/gcc/arm-none-eabi/5.4.1/../../../../arm-none-eabi/lib/armv7-m\libg_nano.a(lib_a-wsetup.o)
                              d:/program files (x86)/gnu tools arm embedded/5.4 2016q3/bin/../lib/gcc/arm-none-eabi/5.4.1/../../../../arm-none-eabi/lib/armv7-m\libg_nano.a(lib_a-puts.o) (__swsetup_r)
d:/program files (x86)/gnu tools arm embedded/5.4 2016q3/bin/../lib/gcc/arm-none-eabi/5.4.1/../../../../arm-none-eabi/lib/armv7-m\libg_nano.a(lib_a-dtoa.o)
                              d:/program files (x86)/gnu tools arm embedded/5.4 2016q3/bin/../lib/gcc/arm-none-eabi/5.4.1/../../../../arm-none-eabi/lib/armv7-m\libg_nano.a(lib_a-nano-vfprintf_float.o) (_dtoa_r)
d:/program files (x86)/gnu tools arm embedded/5.4 2016q3/bin/../lib/gcc/arm-none-eabi/5.4.1/../../../../arm-none-eabi/lib/armv7-m\libg_nano.a(lib_a-fflush.o)
                              d:/program files (x86)/gnu tools arm embedded/5.4 2016q3/bin/../lib/gcc/arm-none-eabi/5.4.1/../../../../arm-none-eabi/lib/armv7-m\libg_nano.a(lib_a-setvbuf.o) (_fflush_r)
d:/program files (x86)/gnu tools arm embedded/5.4 2016q3/bin/../lib/gcc/arm-none-eabi/5.4.1/../../../../arm-none-eabi/lib/armv7-m\libg_nano.a(lib_a-findfp.o)
                              d:/program files (x86)/gnu tools arm embedded/5.4 2016q3/bin/../lib/gcc/arm-none-eabi/5.4.1/../../../../arm-none-eabi/lib/armv7-m\libg_nano.a(lib_a-printf.o) (__sinit)
d:/program files (x86)/gnu tools arm embedded/5.4 2016q3/bin/../lib/gcc/arm-none-eabi/5.4.1/../../../../arm-none-eabi/lib/armv7-m\libg_nano.a(lib_a-fwalk.o)
                              d:/program files (x86)/gnu tools arm embedded/5.4 2016q3/bin/../lib/gcc/arm-none-eabi/5.4.1/../../../../arm-none-eabi/lib/armv7-m\libg_nano.a(lib_a-findfp.o) (_fwalk)
d:/program files (x86)/gnu tools arm embedded/5.4 2016q3/bin/../lib/gcc/arm-none-eabi/5.4.1/../../../../arm-none-eabi/lib/armv7-m\libg_nano.a(lib_a-localeconv.o)
                              d:/program files (x86)/gnu tools arm embedded/5.4 2016q3/bin/../lib/gcc/arm-none-eabi/5.4.1/../../../../arm-none-eabi/lib/armv7-m\libg_nano.a(lib_a-nano-vfprintf_float.o) (_localeconv_r)
d:/program files (x86)/gnu tools arm embedded/5.4 2016q3/bin/../lib/gcc/arm-none-eabi/5.4.1/../../../../arm-none-eabi/lib/armv7-m\libg_nano.a(lib_a-makebuf.o)
                              d:/program files (x86)/gnu tools arm embedded/5.4 2016q3/bin/../lib/gcc/arm-none-eabi/5.4.1/../../../../arm-none-eabi/lib/armv7-m\libg_nano.a(lib_a-setvbuf.o) (__swhatbuf_r)
d:/program files (x86)/gnu tools arm embedded/5.4 2016q3/bin/../lib/gcc/arm-none-eabi/5.4.1/../../../../arm-none-eabi/lib/armv7-m\libg_nano.a(lib_a-malloc.o)
                              d:/program files (x86)/gnu tools arm embedded/5.4 2016q3/bin/../lib/gcc/arm-none-eabi/5.4.1/../../../../arm-none-eabi/lib/armv7-m\libg_nano.a(lib_a-setvbuf.o) (malloc)
d:/program files (x86)/gnu tools arm embedded/5.4 2016q3/bin/../lib/gcc/arm-none-eabi/5.4.1/../../../../arm-none-eabi/lib/armv7-m\libg_nano.a(lib_a-memchr-stub.o)
                              d:/program files (x86)/gnu tools arm embedded/5.4 2016q3/bin/../lib/gcc/arm-none-eabi/5.4.1/../../../../arm-none-eabi/lib/armv7-m\libg_nano.a(lib_a-nano-vfprintf_i.o) (memchr)
d:/program files (x86)/gnu tools arm embedded/5.4 2016q3/bin/../lib/gcc/arm-none-eabi/5.4.1/../../../../arm-none-eabi/lib/armv7-m\libg_nano.a(lib_a-memcpy-stub.o)
                              d:/program files (x86)/gnu tools arm embedded/5.4 2016q3/bin/../lib/gcc/arm-none-eabi/5.4.1/../../../../arm-none-eabi/lib/armv7-m\libg_nano.a(lib_a-dtoa.o) (memcpy)
d:/program files (x86)/gnu tools arm embedded/5.4 2016q3/bin/../lib/gcc/arm-none-eabi/5.4.1/../../../../arm-none-eabi/lib/armv7-m\libg_nano.a(lib_a-mprec.o)
                              d:/program files (x86)/gnu tools arm embedded/5.4 2016q3/bin/../lib/gcc/arm-none-eabi/5.4.1/../../../../arm-none-eabi/lib/armv7-m\libg_nano.a(lib_a-dtoa.o) (_Balloc)
d:/program files (x86)/gnu tools arm embedded/5.4 2016q3/bin/../lib/gcc/arm-none-eabi/5.4.1/../../../../arm-none-eabi/lib/armv7-m\libg_nano.a(lib_a-nano-callocr.o)
                              d:/program files (x86)/gnu tools arm embedded/5.4 2016q3/bin/../lib/gcc/arm-none-eabi/5.4.1/../../../../arm-none-eabi/lib/armv7-m\libg_nano.a(lib_a-mprec.o) (_calloc_r)
d:/program files (x86)/gnu tools arm embedded/5.4 2016q3/bin/../lib/gcc/arm-none-eabi/5.4.1/../../../../arm-none-eabi/lib/armv7-m\libg_nano.a(lib_a-nano-freer.o)
                              d:/program files (x86)/gnu tools arm embedded/5.4 2016q3/bin/../lib/gcc/arm-none-eabi/5.4.1/../../../../arm-none-eabi/lib/armv7-m\libg_nano.a(lib_a-setvbuf.o) (_free_r)
d:/program files (x86)/gnu tools arm embedded/5.4 2016q3/bin/../lib/gcc/arm-none-eabi/5.4.1/../../../../arm-none-eabi/lib/armv7-m\libg_nano.a(lib_a-nano-mallocr.o)
                              d:/program files (x86)/gnu tools arm embedded/5.4 2016q3/bin/../lib/gcc/arm-none-eabi/5.4.1/../../../../arm-none-eabi/lib/armv7-m\libg_nano.a(lib_a-findfp.o) (_malloc_r)
d:/program files (x86)/gnu tools arm embedded/5.4 2016q3/bin/../lib/gcc/arm-none-eabi/5.4.1/../../../../arm-none-eabi/lib/armv7-m\libg_nano.a(lib_a-nano-vfprintf.o)
                              d:/program files (x86)/gnu tools arm embedded/5.4 2016q3/bin/../lib/gcc/arm-none-eabi/5.4.1/../../../../arm-none-eabi/lib/armv7-m\libg_nano.a(lib_a-printf.o) (_vfprintf_r)
d:/program files (x86)/gnu tools arm embedded/5.4 2016q3/bin/../lib/gcc/arm-none-eabi/5.4.1/../../../../arm-none-eabi/lib/armv7-m\libg_nano.a(lib_a-sbrkr.o)
                              d:/program files (x86)/gnu tools arm embedded/5.4 2016q3/bin/../lib/gcc/arm-none-eabi/5.4.1/../../../../arm-none-eabi/lib/armv7-m\libg_nano.a(lib_a-nano-mallocr.o) (_sbrk_r)
d:/program files (x86)/gnu tools arm embedded/5.4 2016q3/bin/../lib/gcc/arm-none-eabi/5.4.1/../../../../arm-none-eabi/lib/armv7-m\libg_nano.a(lib_a-stdio.o)
                              d:/program files (x86)/gnu tools arm embedded/5.4 2016q3/bin/../lib/gcc/arm-none-eabi/5.4.1/../../../../arm-none-eabi/lib/armv7-m\libg_nano.a(lib_a-findfp.o) (__sread)
d:/program files (x86)/gnu tools arm embedded/5.4 2016q3/bin/../lib/gcc/arm-none-eabi/5.4.1/../../../../arm-none-eabi/lib/armv7-m\libg_nano.a(lib_a-writer.o)
                              d:/program files (x86)/gnu tools arm embedded/5.4 2016q3/bin/../lib/gcc/arm-none-eabi/5.4.1/../../../../arm-none-eabi/lib/armv7-m\libg_nano.a(lib_a-stdio.o) (_write_r)
d:/program files (x86)/gnu tools arm embedded/5.4 2016q3/bin/../lib/gcc/arm-none-eabi/5.4.1/../../../../arm-none-eabi/lib/armv7-m\libg_nano.a(lib_a-closer.o)
                              d:/program files (x86)/gnu tools arm embedded/5.4 2016q3/bin/../lib/gcc/arm-none-eabi/5.4.1/../../../../arm-none-eabi/lib/armv7-m\libg_nano.a(lib_a-stdio.o) (_close_r)
d:/program files (x86)/gnu tools arm embedded/5.4 2016q3/bin/../lib/gcc/arm-none-eabi/5.4.1/../../../../arm-none-eabi/lib/armv7-m\libg_nano.a(lib_a-fstatr.o)
                              d:/program files (x86)/gnu tools arm embedded/5.4 2016q3/bin/../lib/gcc/arm-none-eabi/5.4.1/../../../../arm-none-eabi/lib/armv7-m\libg_nano.a(lib_a-makebuf.o) (_fstat_r)
d:/program files (x86)/gnu tools arm embedded/5.4 2016q3/bin/../lib/gcc/arm-none-eabi/5.4.1/../../../../arm-none-eabi/lib/armv7-m\libg_nano.a(lib_a-fvwrite.o)
                              d:/program files (x86)/gnu tools arm embedded/5.4 2016q3/bin/../lib/gcc/arm-none-eabi/5.4.1/../../../../arm-none-eabi/lib/armv7-m\libg_nano.a(lib_a-nano-vfprintf.o) (__sfvwrite_r)
d:/program files (x86)/gnu tools arm embedded/5.4 2016q3/bin/../lib/gcc/arm-none-eabi/5.4.1/../../../../arm-none-eabi/lib/armv7-m\libg_nano.a(lib_a-isattyr.o)
                              d:/program files (x86)/gnu tools arm embedded/5.4 2016q3/bin/../lib/gcc/arm-none-eabi/5.4.1/../../../../arm-none-eabi/lib/armv7-m\libg_nano.a(lib_a-makebuf.o) (_isatty_r)
d:/program files (x86)/gnu tools arm embedded/5.4 2016q3/bin/../lib/gcc/arm-none-eabi/5.4.1/../../../../arm-none-eabi/lib/armv7-m\libg_nano.a(lib_a-locale.o)
                              d:/program files (x86)/gnu tools arm embedded/5.4 2016q3/bin/../lib/gcc/arm-none-eabi/5.4.1/../../../../arm-none-eabi/lib/armv7-m\libg_nano.a(lib_a-localeconv.o) (__global_locale)
d:/program files (x86)/gnu tools arm embedded/5.4 2016q3/bin/../lib/gcc/arm-none-eabi/5.4.1/../../../../arm-none-eabi/lib/armv7-m\libg_nano.a(lib_a-lseekr.o)
                              d:/program files (x86)/gnu tools arm embedded/5.4 2016q3/bin/../lib/gcc/arm-none-eabi/5.4.1/../../../../arm-none-eabi/lib/armv7-m\libg_nano.a(lib_a-stdio.o) (_lseek_r)
d:/program files (x86)/gnu tools arm embedded/5.4 2016q3/bin/../lib/gcc/arm-none-eabi/5.4.1/../../../../arm-none-eabi/lib/armv7-m\libg_nano.a(lib_a-mbtowc_r.o)
                              d:/program files (x86)/gnu tools arm embedded/5.4 2016q3/bin/../lib/gcc/arm-none-eabi/5.4.1/../../../../arm-none-eabi/lib/armv7-m\libg_nano.a(lib_a-locale.o) (__ascii_mbtowc)
d:/program files (x86)/gnu tools arm embedded/5.4 2016q3/bin/../lib/gcc/arm-none-eabi/5.4.1/../../../../arm-none-eabi/lib/armv7-m\libg_nano.a(lib_a-memmove.o)
                              d:/program files (x86)/gnu tools arm embedded/5.4 2016q3/bin/../lib/gcc/arm-none-eabi/5.4.1/../../../../arm-none-eabi/lib/armv7-m\libg_nano.a(lib_a-fvwrite.o) (memmove)
d:/program files (x86)/gnu tools arm embedded/5.4 2016q3/bin/../lib/gcc/arm-none-eabi/5.4.1/../../../../arm-none-eabi/lib/armv7-m\libg_nano.a(lib_a-mlock.o)
                              d:/program files (x86)/gnu tools arm embedded/5.4 2016q3/bin/../lib/gcc/arm-none-eabi/5.4.1/../../../../arm-none-eabi/lib/armv7-m\libg_nano.a(lib_a-nano-freer.o) (__malloc_lock)
d:/program files (x86)/gnu tools arm embedded/5.4 2016q3/bin/../lib/gcc/arm-none-eabi/5.4.1/../../../../arm-none-eabi/lib/armv7-m\libg_nano.a(lib_a-nano-reallocr.o)
                              d:/program files (x86)/gnu tools arm embedded/5.4 2016q3/bin/../lib/gcc/arm-none-eabi/5.4.1/../../../../arm-none-eabi/lib/armv7-m\libg_nano.a(lib_a-fvwrite.o) (_realloc_r)
d:/program files (x86)/gnu tools arm embedded/5.4 2016q3/bin/../lib/gcc/arm-none-eabi/5.4.1/../../../../arm-none-eabi/lib/armv7-m\libg_nano.a(lib_a-readr.o)
                              d:/program files (x86)/gnu tools arm embedded/5.4 2016q3/bin/../lib/gcc/arm-none-eabi/5.4.1/../../../../arm-none-eabi/lib/armv7-m\libg_nano.a(lib_a-stdio.o) (_read_r)
d:/program files (x86)/gnu tools arm embedded/5.4 2016q3/bin/../lib/gcc/arm-none-eabi/5.4.1/../../../../arm-none-eabi/lib/armv7-m\libg_nano.a(lib_a-reent.o)
                              d:/program files (x86)/gnu tools arm embedded/5.4 2016q3/bin/../lib/gcc/arm-none-eabi/5.4.1/../../../../arm-none-eabi/lib/armv7-m\libg_nano.a(lib_a-sbrkr.o) (errno)
d:/program files (x86)/gnu tools arm embedded/5.4 2016q3/bin/../lib/gcc/arm-none-eabi/5.4.1/../../../../arm-none-eabi/lib/armv7-m\libg_nano.a(lib_a-strcmp.o)
                              d:/program files (x86)/gnu tools arm embedded/5.4 2016q3/bin/../lib/gcc/arm-none-eabi/5.4.1/../../../../arm-none-eabi/lib/armv7-m\libg_nano.a(lib_a-locale.o) (strcmp)
d:/program files (x86)/gnu tools arm embedded/5.4 2016q3/bin/../lib/gcc/arm-none-eabi/5.4.1/../../../../arm-none-eabi/lib/armv7-m\libg_nano.a(lib_a-wctomb_r.o)
                              d:/program files (x86)/gnu tools arm embedded/5.4 2016q3/bin/../lib/gcc/arm-none-eabi/5.4.1/../../../../arm-none-eabi/lib/armv7-m\libg_nano.a(lib_a-locale.o) (__ascii_wctomb)
d:/program files (x86)/gnu tools arm embedded/5.4 2016q3/bin/../lib/gcc/arm-none-eabi/5.4.1/../../../../arm-none-eabi/lib/armv7-m\libg_nano.a(lib_a-ctype_.o)
                              d:/program files (x86)/gnu tools arm embedded/5.4 2016q3/bin/../lib/gcc/arm-none-eabi/5.4.1/../../../../arm-none-eabi/lib/armv7-m\libg_nano.a(lib_a-locale.o) (_ctype_)
d:/program files (x86)/gnu tools arm embedded/5.4 2016q3/bin/../lib/gcc/arm-none-eabi/5.4.1/../../../../arm-none-eabi/lib/armv7-m\libg_nano.a(lib_a-nano-msizer.o)
                              d:/program files (x86)/gnu tools arm embedded/5.4 2016q3/bin/../lib/gcc/arm-none-eabi/5.4.1/../../../../arm-none-eabi/lib/armv7-m\libg_nano.a(lib_a-nano-reallocr.o) (_malloc_usable_size_r)
d:/program files (x86)/gnu tools arm embedded/5.4 2016q3/bin/../lib/gcc/arm-none-eabi/5.4.1/armv7-m\libgcc.a(_arm_cmpdf2.o)
                              d:/program files (x86)/gnu tools arm embedded/5.4 2016q3/bin/../lib/gcc/arm-none-eabi/5.4.1/../../../../arm-none-eabi/lib/armv7-m\libg_nano.a(lib_a-nano-vfprintf_float.o) (__aeabi_dcmpeq)
d:/program files (x86)/gnu tools arm embedded/5.4 2016q3/bin/../lib/gcc/arm-none-eabi/5.4.1/armv7-m\libgcc.a(_arm_unorddf2.o)
                              d:/program files (x86)/gnu tools arm embedded/5.4 2016q3/bin/../lib/gcc/arm-none-eabi/5.4.1/../../../../arm-none-eabi/lib/armv7-m\libg_nano.a(lib_a-nano-vfprintf_float.o) (__aeabi_dcmpun)
d:/program files (x86)/gnu tools arm embedded/5.4 2016q3/bin/../lib/gcc/arm-none-eabi/5.4.1/armv7-m\libgcc.a(_arm_fixdfsi.o)
                              d:/program files (x86)/gnu tools arm embedded/5.4 2016q3/bin/../lib/gcc/arm-none-eabi/5.4.1/../../../../arm-none-eabi/lib/armv7-m\libg_nano.a(lib_a-dtoa.o) (__aeabi_d2iz)
d:/program files (x86)/gnu tools arm embedded/5.4 2016q3/bin/../lib/gcc/arm-none-eabi/5.4.1/../../../../arm-none-eabi/lib/armv7-m\libnosys.a(fstat.o)
                              d:/program files (x86)/gnu tools arm embedded/5.4 2016q3/bin/../lib/gcc/arm-none-eabi/5.4.1/../../../../arm-none-eabi/lib/armv7-m\libg_nano.a(lib_a-fstatr.o) (_fstat)
d:/program files (x86)/gnu tools arm embedded/5.4 2016q3/bin/../lib/gcc/arm-none-eabi/5.4.1/../../../../arm-none-eabi/lib/armv7-m\libnosys.a(sbrk.o)
                              d:/program files (x86)/gnu tools arm embedded/5.4 2016q3/bin/../lib/gcc/arm-none-eabi/5.4.1/../../../../arm-none-eabi/lib/armv7-m\libg_nano.a(lib_a-sbrkr.o) (_sbrk)
d:/program files (x86)/gnu tools arm embedded/5.4 2016q3/bin/../lib/gcc/arm-none-eabi/5.4.1/../../../../arm-none-eabi/lib/armv7-m\libnosys.a(_exit.o)
                              d:/program files (x86)/gnu tools arm embedded/5.4 2016q3/bin/../lib/gcc/arm-none-eabi/5.4.1/../../../../arm-none-eabi/lib/armv7-m\libg_nano.a(lib_a-exit.o) (_exit)

Allocating common symbols
Common symbol       size              file

errno               0x4               d:/program files (x86)/gnu tools arm embedded/5.4 2016q3/bin/../lib/gcc/arm-none-eabi/5.4.1/../../../../arm-none-eabi/lib/armv7-m\libg_nano.a(lib_a-reent.o)

Discarded input sections

 .text          0x00000000        0x0 d:/program files (x86)/gnu tools arm embedded/5.4 2016q3/bin/../lib/gcc/arm-none-eabi/5.4.1/armv7-m/crti.o
 .data          0x00000000        0x0 d:/program files (x86)/gnu tools arm embedded/5.4 2016q3/bin/../lib/gcc/arm-none-eabi/5.4.1/armv7-m/crti.o
 .bss           0x00000000        0x0 d:/program files (x86)/gnu tools arm embedded/5.4 2016q3/bin/../lib/gcc/arm-none-eabi/5.4.1/armv7-m/crti.o
 .data          0x00000000        0x4 d:/program files (x86)/gnu tools arm embedded/5.4 2016q3/bin/../lib/gcc/arm-none-eabi/5.4.1/armv7-m/crtbegin.o
 .text          0x00000000       0x74 d:/program files (x86)/gnu tools arm embedded/5.4 2016q3/bin/../lib/gcc/arm-none-eabi/5.4.1/../../../../arm-none-eabi/lib/armv7-m/crt0.o
 .data          0x00000000        0x0 d:/program files (x86)/gnu tools arm embedded/5.4 2016q3/bin/../lib/gcc/arm-none-eabi/5.4.1/../../../../arm-none-eabi/lib/armv7-m/crt0.o
 .bss           0x00000000        0x0 d:/program files (x86)/gnu tools arm embedded/5.4 2016q3/bin/../lib/gcc/arm-none-eabi/5.4.1/../../../../arm-none-eabi/lib/armv7-m/crt0.o
 .ARM.extab     0x00000000        0x0 d:/program files (x86)/gnu tools arm embedded/5.4 2016q3/bin/../lib/gcc/arm-none-eabi/5.4.1/../../../../arm-none-eabi/lib/armv7-m/crt0.o
 .ARM.exidx     0x00000000        0x8 d:/program files (x86)/gnu tools arm embedded/5.4 2016q3/bin/../lib/gcc/arm-none-eabi/5.4.1/../../../../arm-none-eabi/lib/armv7-m/crt0.o
 .ARM.attributes
                0x00000000       0x1b d:/program files (x86)/gnu tools arm embedded/5.4 2016q3/bin/../lib/gcc/arm-none-eabi/5.4.1/../../../../arm-none-eabi/lib/armv7-m/crt0.o
 .text          0x00000000        0x0 CMakeFiles/PWM.elf.dir/CORE/Src/core_cm3.c.obj
 .data          0x00000000        0x0 CMakeFiles/PWM.elf.dir/CORE/Src/core_cm3.c.obj
 .bss           0x00000000        0x0 CMakeFiles/PWM.elf.dir/CORE/Src/core_cm3.c.obj
 .text.__get_PSP
                0x00000000        0x8 CMakeFiles/PWM.elf.dir/CORE/Src/core_cm3.c.obj
 .text.__set_PSP
                0x00000000        0x8 CMakeFiles/PWM.elf.dir/CORE/Src/core_cm3.c.obj
 .text.__get_MSP
                0x00000000        0x8 CMakeFiles/PWM.elf.dir/CORE/Src/core_cm3.c.obj
 .text.__set_MSP
                0x00000000        0x8 CMakeFiles/PWM.elf.dir/CORE/Src/core_cm3.c.obj
 .text.__get_BASEPRI
                0x00000000        0x8 CMakeFiles/PWM.elf.dir/CORE/Src/core_cm3.c.obj
 .text.__set_BASEPRI
                0x00000000        0x8 CMakeFiles/PWM.elf.dir/CORE/Src/core_cm3.c.obj
 .text.__get_PRIMASK
                0x00000000        0x8 CMakeFiles/PWM.elf.dir/CORE/Src/core_cm3.c.obj
 .text.__set_PRIMASK
                0x00000000        0x8 CMakeFiles/PWM.elf.dir/CORE/Src/core_cm3.c.obj
 .text.__get_FAULTMASK
                0x00000000        0x8 CMakeFiles/PWM.elf.dir/CORE/Src/core_cm3.c.obj
 .text.__set_FAULTMASK
                0x00000000        0x8 CMakeFiles/PWM.elf.dir/CORE/Src/core_cm3.c.obj
 .text.__get_CONTROL
                0x00000000        0x8 CMakeFiles/PWM.elf.dir/CORE/Src/core_cm3.c.obj
 .text.__set_CONTROL
                0x00000000        0x8 CMakeFiles/PWM.elf.dir/CORE/Src/core_cm3.c.obj
 .text.__REV    0x00000000        0x4 CMakeFiles/PWM.elf.dir/CORE/Src/core_cm3.c.obj
 .text.__REV16  0x00000000        0x4 CMakeFiles/PWM.elf.dir/CORE/Src/core_cm3.c.obj
 .text.__REVSH  0x00000000        0x4 CMakeFiles/PWM.elf.dir/CORE/Src/core_cm3.c.obj
 .text.__RBIT   0x00000000        0x8 CMakeFiles/PWM.elf.dir/CORE/Src/core_cm3.c.obj
 .text.__LDREXB
                0x00000000        0x8 CMakeFiles/PWM.elf.dir/CORE/Src/core_cm3.c.obj
 .text.__LDREXH
                0x00000000        0x8 CMakeFiles/PWM.elf.dir/CORE/Src/core_cm3.c.obj
 .text.__LDREXW
                0x00000000        0x8 CMakeFiles/PWM.elf.dir/CORE/Src/core_cm3.c.obj
 .text.__STREXB
                0x00000000        0x8 CMakeFiles/PWM.elf.dir/CORE/Src/core_cm3.c.obj
 .text.__STREXH
                0x00000000        0x8 CMakeFiles/PWM.elf.dir/CORE/Src/core_cm3.c.obj
 .text.__STREXW
                0x00000000        0x8 CMakeFiles/PWM.elf.dir/CORE/Src/core_cm3.c.obj
 .debug_info    0x00000000      0x53c CMakeFiles/PWM.elf.dir/CORE/Src/core_cm3.c.obj
 .debug_abbrev  0x00000000       0xbb CMakeFiles/PWM.elf.dir/CORE/Src/core_cm3.c.obj
 .debug_loc     0x00000000      0x33a CMakeFiles/PWM.elf.dir/CORE/Src/core_cm3.c.obj
 .debug_aranges
                0x00000000       0xc8 CMakeFiles/PWM.elf.dir/CORE/Src/core_cm3.c.obj
 .debug_ranges  0x00000000       0xb8 CMakeFiles/PWM.elf.dir/CORE/Src/core_cm3.c.obj
 .debug_line    0x00000000      0x2be CMakeFiles/PWM.elf.dir/CORE/Src/core_cm3.c.obj
 .debug_str     0x00000000      0x31e CMakeFiles/PWM.elf.dir/CORE/Src/core_cm3.c.obj
 .comment       0x00000000       0x6f CMakeFiles/PWM.elf.dir/CORE/Src/core_cm3.c.obj
 .debug_frame   0x00000000      0x170 CMakeFiles/PWM.elf.dir/CORE/Src/core_cm3.c.obj
 .ARM.attributes
                0x00000000       0x33 CMakeFiles/PWM.elf.dir/CORE/Src/core_cm3.c.obj
 .text          0x00000000        0x0 CMakeFiles/PWM.elf.dir/HARDWARE/Src/adc.c.obj
 .data          0x00000000        0x0 CMakeFiles/PWM.elf.dir/HARDWARE/Src/adc.c.obj
 .bss           0x00000000        0x0 CMakeFiles/PWM.elf.dir/HARDWARE/Src/adc.c.obj
 .text          0x00000000        0x0 CMakeFiles/PWM.elf.dir/HARDWARE/Src/beep.c.obj
 .data          0x00000000        0x0 CMakeFiles/PWM.elf.dir/HARDWARE/Src/beep.c.obj
 .bss           0x00000000        0x0 CMakeFiles/PWM.elf.dir/HARDWARE/Src/beep.c.obj
 .text          0x00000000        0x0 CMakeFiles/PWM.elf.dir/HARDWARE/Src/dht11.c.obj
 .data          0x00000000        0x0 CMakeFiles/PWM.elf.dir/HARDWARE/Src/dht11.c.obj
 .bss           0x00000000        0x0 CMakeFiles/PWM.elf.dir/HARDWARE/Src/dht11.c.obj
 .text          0x00000000        0x0 CMakeFiles/PWM.elf.dir/HARDWARE/Src/exti.c.obj
 .data          0x00000000        0x0 CMakeFiles/PWM.elf.dir/HARDWARE/Src/exti.c.obj
 .bss           0x00000000        0x0 CMakeFiles/PWM.elf.dir/HARDWARE/Src/exti.c.obj
 .text.EXTIX_Init
                0x00000000       0xc4 CMakeFiles/PWM.elf.dir/HARDWARE/Src/exti.c.obj
 .text          0x00000000        0x0 CMakeFiles/PWM.elf.dir/HARDWARE/Src/key.c.obj
 .data          0x00000000        0x0 CMakeFiles/PWM.elf.dir/HARDWARE/Src/key.c.obj
 .bss           0x00000000        0x0 CMakeFiles/PWM.elf.dir/HARDWARE/Src/key.c.obj
 .text.key_scan
                0x00000000       0xa8 CMakeFiles/PWM.elf.dir/HARDWARE/Src/key.c.obj
 .data.key_up.6568
                0x00000000        0x1 CMakeFiles/PWM.elf.dir/HARDWARE/Src/key.c.obj
 .text          0x00000000        0x0 CMakeFiles/PWM.elf.dir/HARDWARE/Src/led.c.obj
 .data          0x00000000        0x0 CMakeFiles/PWM.elf.dir/HARDWARE/Src/led.c.obj
 .bss           0x00000000        0x0 CMakeFiles/PWM.elf.dir/HARDWARE/Src/led.c.obj
 .text          0x00000000        0x0 CMakeFiles/PWM.elf.dir/HARDWARE/Src/light.c.obj
 .data          0x00000000        0x0 CMakeFiles/PWM.elf.dir/HARDWARE/Src/light.c.obj
 .bss           0x00000000        0x0 CMakeFiles/PWM.elf.dir/HARDWARE/Src/light.c.obj
 .debug_line    0x00000000        0x0 CMakeFiles/PWM.elf.dir/HARDWARE/Src/light.c.obj
 .debug_str     0x00000000      0x104 CMakeFiles/PWM.elf.dir/HARDWARE/Src/light.c.obj
 .comment       0x00000000       0x6f CMakeFiles/PWM.elf.dir/HARDWARE/Src/light.c.obj
 .ARM.attributes
                0x00000000       0x33 CMakeFiles/PWM.elf.dir/HARDWARE/Src/light.c.obj
 .text          0x00000000        0x0 CMakeFiles/PWM.elf.dir/HARDWARE/Src/pwm.c.obj
 .data          0x00000000        0x0 CMakeFiles/PWM.elf.dir/HARDWARE/Src/pwm.c.obj
 .bss           0x00000000        0x0 CMakeFiles/PWM.elf.dir/HARDWARE/Src/pwm.c.obj
 .text.RGB_PWM1
                0x00000000       0xe0 CMakeFiles/PWM.elf.dir/HARDWARE/Src/pwm.c.obj
 .text          0x00000000        0x0 CMakeFiles/PWM.elf.dir/HARDWARE/Src/rtc.c.obj
 .data          0x00000000        0x0 CMakeFiles/PWM.elf.dir/HARDWARE/Src/rtc.c.obj
 .bss           0x00000000        0x0 CMakeFiles/PWM.elf.dir/HARDWARE/Src/rtc.c.obj
 .text.RTC_Alarm_Set
                0x00000000       0xcc CMakeFiles/PWM.elf.dir/HARDWARE/Src/rtc.c.obj
 .text          0x00000000        0x0 CMakeFiles/PWM.elf.dir/HARDWARE/Src/soil.c.obj
 .data          0x00000000        0x0 CMakeFiles/PWM.elf.dir/HARDWARE/Src/soil.c.obj
 .bss           0x00000000        0x0 CMakeFiles/PWM.elf.dir/HARDWARE/Src/soil.c.obj
 .debug_line    0x00000000        0x0 CMakeFiles/PWM.elf.dir/HARDWARE/Src/soil.c.obj
 .debug_str     0x00000000      0x103 CMakeFiles/PWM.elf.dir/HARDWARE/Src/soil.c.obj
 .comment       0x00000000       0x6f CMakeFiles/PWM.elf.dir/HARDWARE/Src/soil.c.obj
 .ARM.attributes
                0x00000000       0x33 CMakeFiles/PWM.elf.dir/HARDWARE/Src/soil.c.obj
 .text          0x00000000        0x0 CMakeFiles/PWM.elf.dir/HARDWARE/Src/spi.c.obj
 .data          0x00000000        0x0 CMakeFiles/PWM.elf.dir/HARDWARE/Src/spi.c.obj
 .bss           0x00000000        0x0 CMakeFiles/PWM.elf.dir/HARDWARE/Src/spi.c.obj
 .text          0x00000000        0x0 CMakeFiles/PWM.elf.dir/HARDWARE/Src/timer.c.obj
 .data          0x00000000        0x0 CMakeFiles/PWM.elf.dir/HARDWARE/Src/timer.c.obj
 .bss           0x00000000        0x0 CMakeFiles/PWM.elf.dir/HARDWARE/Src/timer.c.obj
 .text.TIM2_Int_Init
                0x00000000       0x64 CMakeFiles/PWM.elf.dir/HARDWARE/Src/timer.c.obj
 .text          0x00000000        0x0 CMakeFiles/PWM.elf.dir/HARDWARE/Src/w25qxx.c.obj
 .data          0x00000000        0x0 CMakeFiles/PWM.elf.dir/HARDWARE/Src/w25qxx.c.obj
 .bss           0x00000000        0x0 CMakeFiles/PWM.elf.dir/HARDWARE/Src/w25qxx.c.obj
 .text.W25QXX_ReadSR
                0x00000000       0x20 CMakeFiles/PWM.elf.dir/HARDWARE/Src/w25qxx.c.obj
 .text.W25QXX_Write_SR
                0x00000000       0x20 CMakeFiles/PWM.elf.dir/HARDWARE/Src/w25qxx.c.obj
 .text.W25QXX_Write_Enable
                0x00000000       0x18 CMakeFiles/PWM.elf.dir/HARDWARE/Src/w25qxx.c.obj
 .text.W25QXX_Write_Disable
                0x00000000       0x18 CMakeFiles/PWM.elf.dir/HARDWARE/Src/w25qxx.c.obj
 .text.W25QXX_Read
                0x00000000       0x48 CMakeFiles/PWM.elf.dir/HARDWARE/Src/w25qxx.c.obj
 .text.W25QXX_Wait_Busy
                0x00000000       0x10 CMakeFiles/PWM.elf.dir/HARDWARE/Src/w25qxx.c.obj
 .text.W25QXX_Write_Page
                0x00000000       0x50 CMakeFiles/PWM.elf.dir/HARDWARE/Src/w25qxx.c.obj
 .text.W25QXX_Write_NoCheck
                0x00000000       0x40 CMakeFiles/PWM.elf.dir/HARDWARE/Src/w25qxx.c.obj
 .text.W25QXX_Erase_Chip
                0x00000000       0x24 CMakeFiles/PWM.elf.dir/HARDWARE/Src/w25qxx.c.obj
 .text.W25QXX_Erase_Sector
                0x00000000       0x40 CMakeFiles/PWM.elf.dir/HARDWARE/Src/w25qxx.c.obj
 .text.W25QXX_Write
                0x00000000       0xa4 CMakeFiles/PWM.elf.dir/HARDWARE/Src/w25qxx.c.obj
 .text.W25QXX_PowerDown
                0x00000000       0x20 CMakeFiles/PWM.elf.dir/HARDWARE/Src/w25qxx.c.obj
 .text.W25QXX_WAKEUP
                0x00000000       0x20 CMakeFiles/PWM.elf.dir/HARDWARE/Src/w25qxx.c.obj
 .bss.W25QXX_BUFFER
                0x00000000     0x1000 CMakeFiles/PWM.elf.dir/HARDWARE/Src/w25qxx.c.obj
 .text          0x00000000        0x0 CMakeFiles/PWM.elf.dir/OLED/Src/oled.c.obj
 .data          0x00000000        0x0 CMakeFiles/PWM.elf.dir/OLED/Src/oled.c.obj
 .bss           0x00000000        0x0 CMakeFiles/PWM.elf.dir/OLED/Src/oled.c.obj
 .text.OLED_Display_On
                0x00000000       0x1c CMakeFiles/PWM.elf.dir/OLED/Src/oled.c.obj
 .text.OLED_Display_Off
                0x00000000       0x1c CMakeFiles/PWM.elf.dir/OLED/Src/oled.c.obj
 .text.OLED_ShowCHinese
                0x00000000       0x54 CMakeFiles/PWM.elf.dir/OLED/Src/oled.c.obj
 .text.OLED_DrawBMP
                0x00000000       0x48 CMakeFiles/PWM.elf.dir/OLED/Src/oled.c.obj
 .text.OLED_Scroll
                0x00000000       0x4c CMakeFiles/PWM.elf.dir/OLED/Src/oled.c.obj
 .rodata.Hzk    0x00000000      0x100 CMakeFiles/PWM.elf.dir/OLED/Src/oled.c.obj
 .rodata.F6x8   0x00000000      0x228 CMakeFiles/PWM.elf.dir/OLED/Src/oled.c.obj
 .text          0x00000000        0x0 CMakeFiles/PWM.elf.dir/STM32F10x_FWLib/Src/misc.c.obj
 .data          0x00000000        0x0 CMakeFiles/PWM.elf.dir/STM32F10x_FWLib/Src/misc.c.obj
 .bss           0x00000000        0x0 CMakeFiles/PWM.elf.dir/STM32F10x_FWLib/Src/misc.c.obj
 .text.NVIC_PriorityGroupConfig
                0x00000000       0x14 CMakeFiles/PWM.elf.dir/STM32F10x_FWLib/Src/misc.c.obj
 .text.NVIC_SetVectorTable
                0x00000000       0x14 CMakeFiles/PWM.elf.dir/STM32F10x_FWLib/Src/misc.c.obj
 .text.NVIC_SystemLPConfig
                0x00000000       0x1c CMakeFiles/PWM.elf.dir/STM32F10x_FWLib/Src/misc.c.obj
 .text          0x00000000        0x0 CMakeFiles/PWM.elf.dir/STM32F10x_FWLib/Src/stm32f10x_adc.c.obj
 .data          0x00000000        0x0 CMakeFiles/PWM.elf.dir/STM32F10x_FWLib/Src/stm32f10x_adc.c.obj
 .bss           0x00000000        0x0 CMakeFiles/PWM.elf.dir/STM32F10x_FWLib/Src/stm32f10x_adc.c.obj
 .text.ADC_StructInit
                0x00000000       0x14 CMakeFiles/PWM.elf.dir/STM32F10x_FWLib/Src/stm32f10x_adc.c.obj
 .text.ADC_DMACmd
                0x00000000       0x18 CMakeFiles/PWM.elf.dir/STM32F10x_FWLib/Src/stm32f10x_adc.c.obj
 .text.ADC_ITConfig
                0x00000000       0x18 CMakeFiles/PWM.elf.dir/STM32F10x_FWLib/Src/stm32f10x_adc.c.obj
 .text.ADC_GetSoftwareStartConvStatus
                0x00000000       0x10 CMakeFiles/PWM.elf.dir/STM32F10x_FWLib/Src/stm32f10x_adc.c.obj
 .text.ADC_DiscModeChannelCountConfig
                0x00000000       0x10 CMakeFiles/PWM.elf.dir/STM32F10x_FWLib/Src/stm32f10x_adc.c.obj
 .text.ADC_DiscModeCmd
                0x00000000       0x18 CMakeFiles/PWM.elf.dir/STM32F10x_FWLib/Src/stm32f10x_adc.c.obj
 .text.ADC_ExternalTrigConvCmd
                0x00000000       0x18 CMakeFiles/PWM.elf.dir/STM32F10x_FWLib/Src/stm32f10x_adc.c.obj
 .text.ADC_GetDualModeConversionValue
                0x00000000        0xc CMakeFiles/PWM.elf.dir/STM32F10x_FWLib/Src/stm32f10x_adc.c.obj
 .text.ADC_AutoInjectedConvCmd
                0x00000000       0x18 CMakeFiles/PWM.elf.dir/STM32F10x_FWLib/Src/stm32f10x_adc.c.obj
 .text.ADC_InjectedDiscModeCmd
                0x00000000       0x18 CMakeFiles/PWM.elf.dir/STM32F10x_FWLib/Src/stm32f10x_adc.c.obj
 .text.ADC_ExternalTrigInjectedConvConfig
                0x00000000        0xc CMakeFiles/PWM.elf.dir/STM32F10x_FWLib/Src/stm32f10x_adc.c.obj
 .text.ADC_ExternalTrigInjectedConvCmd
                0x00000000       0x18 CMakeFiles/PWM.elf.dir/STM32F10x_FWLib/Src/stm32f10x_adc.c.obj
 .text.ADC_SoftwareStartInjectedConvCmd
                0x00000000       0x18 CMakeFiles/PWM.elf.dir/STM32F10x_FWLib/Src/stm32f10x_adc.c.obj
 .text.ADC_GetSoftwareStartInjectedConvCmdStatus
                0x00000000       0x10 CMakeFiles/PWM.elf.dir/STM32F10x_FWLib/Src/stm32f10x_adc.c.obj
 .text.ADC_InjectedChannelConfig
                0x00000000       0x58 CMakeFiles/PWM.elf.dir/STM32F10x_FWLib/Src/stm32f10x_adc.c.obj
 .text.ADC_InjectedSequencerLengthConfig
                0x00000000       0x10 CMakeFiles/PWM.elf.dir/STM32F10x_FWLib/Src/stm32f10x_adc.c.obj
 .text.ADC_SetInjectedOffset
                0x00000000       0x18 CMakeFiles/PWM.elf.dir/STM32F10x_FWLib/Src/stm32f10x_adc.c.obj
 .text.ADC_GetInjectedConversionValue
                0x00000000       0x1c CMakeFiles/PWM.elf.dir/STM32F10x_FWLib/Src/stm32f10x_adc.c.obj
 .text.ADC_AnalogWatchdogCmd
                0x00000000       0x10 CMakeFiles/PWM.elf.dir/STM32F10x_FWLib/Src/stm32f10x_adc.c.obj
 .text.ADC_AnalogWatchdogThresholdsConfig
                0x00000000        0x8 CMakeFiles/PWM.elf.dir/STM32F10x_FWLib/Src/stm32f10x_adc.c.obj
 .text.ADC_AnalogWatchdogSingleChannelConfig
                0x00000000        0xc CMakeFiles/PWM.elf.dir/STM32F10x_FWLib/Src/stm32f10x_adc.c.obj
 .text.ADC_TempSensorVrefintCmd
                0x00000000       0x20 CMakeFiles/PWM.elf.dir/STM32F10x_FWLib/Src/stm32f10x_adc.c.obj
 .text.ADC_ClearFlag
                0x00000000        0x8 CMakeFiles/PWM.elf.dir/STM32F10x_FWLib/Src/stm32f10x_adc.c.obj
 .text.ADC_GetITStatus
                0x00000000       0x1c CMakeFiles/PWM.elf.dir/STM32F10x_FWLib/Src/stm32f10x_adc.c.obj
 .text.ADC_ClearITPendingBit
                0x00000000        0x8 CMakeFiles/PWM.elf.dir/STM32F10x_FWLib/Src/stm32f10x_adc.c.obj
 .text          0x00000000        0x0 CMakeFiles/PWM.elf.dir/STM32F10x_FWLib/Src/stm32f10x_bkp.c.obj
 .data          0x00000000        0x0 CMakeFiles/PWM.elf.dir/STM32F10x_FWLib/Src/stm32f10x_bkp.c.obj
 .bss           0x00000000        0x0 CMakeFiles/PWM.elf.dir/STM32F10x_FWLib/Src/stm32f10x_bkp.c.obj
 .text.BKP_TamperPinLevelConfig
                0x00000000        0xc CMakeFiles/PWM.elf.dir/STM32F10x_FWLib/Src/stm32f10x_bkp.c.obj
 .text.BKP_TamperPinCmd
                0x00000000        0xc CMakeFiles/PWM.elf.dir/STM32F10x_FWLib/Src/stm32f10x_bkp.c.obj
 .text.BKP_ITConfig
                0x00000000        0xc CMakeFiles/PWM.elf.dir/STM32F10x_FWLib/Src/stm32f10x_bkp.c.obj
 .text.BKP_RTCOutputConfig
                0x00000000       0x14 CMakeFiles/PWM.elf.dir/STM32F10x_FWLib/Src/stm32f10x_bkp.c.obj
 .text.BKP_SetRTCCalibrationValue
                0x00000000       0x14 CMakeFiles/PWM.elf.dir/STM32F10x_FWLib/Src/stm32f10x_bkp.c.obj
 .text.BKP_GetFlagStatus
                0x00000000        0xc CMakeFiles/PWM.elf.dir/STM32F10x_FWLib/Src/stm32f10x_bkp.c.obj
 .text.BKP_ClearFlag
                0x00000000       0x14 CMakeFiles/PWM.elf.dir/STM32F10x_FWLib/Src/stm32f10x_bkp.c.obj
 .text.BKP_GetITStatus
                0x00000000        0xc CMakeFiles/PWM.elf.dir/STM32F10x_FWLib/Src/stm32f10x_bkp.c.obj
 .text.BKP_ClearITPendingBit
                0x00000000       0x14 CMakeFiles/PWM.elf.dir/STM32F10x_FWLib/Src/stm32f10x_bkp.c.obj
 .text          0x00000000        0x0 CMakeFiles/PWM.elf.dir/STM32F10x_FWLib/Src/stm32f10x_can.c.obj
 .data          0x00000000        0x0 CMakeFiles/PWM.elf.dir/STM32F10x_FWLib/Src/stm32f10x_can.c.obj
 .bss           0x00000000        0x0 CMakeFiles/PWM.elf.dir/STM32F10x_FWLib/Src/stm32f10x_can.c.obj
 .text.CheckITStatus
                0x00000000        0xc CMakeFiles/PWM.elf.dir/STM32F10x_FWLib/Src/stm32f10x_can.c.obj
 .text.CAN_DeInit
                0x00000000       0x38 CMakeFiles/PWM.elf.dir/STM32F10x_FWLib/Src/stm32f10x_can.c.obj
 .text.CAN_Init
                0x00000000      0x110 CMakeFiles/PWM.elf.dir/STM32F10x_FWLib/Src/stm32f10x_can.c.obj
 .text.CAN_FilterInit
                0x00000000       0xf4 CMakeFiles/PWM.elf.dir/STM32F10x_FWLib/Src/stm32f10x_can.c.obj
 .text.CAN_StructInit
                0x00000000       0x20 CMakeFiles/PWM.elf.dir/STM32F10x_FWLib/Src/stm32f10x_can.c.obj
 .text.CAN_SlaveStartBank
                0x00000000       0x3c CMakeFiles/PWM.elf.dir/STM32F10x_FWLib/Src/stm32f10x_can.c.obj
 .text.CAN_DBGFreeze
                0x00000000       0x18 CMakeFiles/PWM.elf.dir/STM32F10x_FWLib/Src/stm32f10x_can.c.obj
 .text.CAN_TTComModeCmd
                0x00000000       0x60 CMakeFiles/PWM.elf.dir/STM32F10x_FWLib/Src/stm32f10x_can.c.obj
 .text.CAN_Transmit
                0x00000000       0xd0 CMakeFiles/PWM.elf.dir/STM32F10x_FWLib/Src/stm32f10x_can.c.obj
 .text.CAN_TransmitStatus
                0x00000000       0x74 CMakeFiles/PWM.elf.dir/STM32F10x_FWLib/Src/stm32f10x_can.c.obj
 .text.CAN_CancelTransmit
                0x00000000       0x2c CMakeFiles/PWM.elf.dir/STM32F10x_FWLib/Src/stm32f10x_can.c.obj
 .text.CAN_Receive
                0x00000000       0xa4 CMakeFiles/PWM.elf.dir/STM32F10x_FWLib/Src/stm32f10x_can.c.obj
 .text.CAN_FIFORelease
                0x00000000       0x18 CMakeFiles/PWM.elf.dir/STM32F10x_FWLib/Src/stm32f10x_can.c.obj
 .text.CAN_MessagePending
                0x00000000       0x1c CMakeFiles/PWM.elf.dir/STM32F10x_FWLib/Src/stm32f10x_can.c.obj
 .text.CAN_OperatingModeRequest
                0x00000000       0xa4 CMakeFiles/PWM.elf.dir/STM32F10x_FWLib/Src/stm32f10x_can.c.obj
 .text.CAN_Sleep
                0x00000000       0x20 CMakeFiles/PWM.elf.dir/STM32F10x_FWLib/Src/stm32f10x_can.c.obj
 .text.CAN_WakeUp
                0x00000000       0x2c CMakeFiles/PWM.elf.dir/STM32F10x_FWLib/Src/stm32f10x_can.c.obj
 .text.CAN_GetLastErrorCode
                0x00000000        0x8 CMakeFiles/PWM.elf.dir/STM32F10x_FWLib/Src/stm32f10x_can.c.obj
 .text.CAN_GetReceiveErrorCounter
                0x00000000        0x8 CMakeFiles/PWM.elf.dir/STM32F10x_FWLib/Src/stm32f10x_can.c.obj
 .text.CAN_GetLSBTransmitErrorCounter
                0x00000000        0x8 CMakeFiles/PWM.elf.dir/STM32F10x_FWLib/Src/stm32f10x_can.c.obj
 .text.CAN_ITConfig
                0x00000000       0x14 CMakeFiles/PWM.elf.dir/STM32F10x_FWLib/Src/stm32f10x_can.c.obj
 .text.CAN_GetFlagStatus
                0x00000000       0x74 CMakeFiles/PWM.elf.dir/STM32F10x_FWLib/Src/stm32f10x_can.c.obj
 .text.CAN_ClearFlag
                0x00000000       0x38 CMakeFiles/PWM.elf.dir/STM32F10x_FWLib/Src/stm32f10x_can.c.obj
 .text.CAN_GetITStatus
                0x00000000       0xf4 CMakeFiles/PWM.elf.dir/STM32F10x_FWLib/Src/stm32f10x_can.c.obj
 .text.CAN_ClearITPendingBit
                0x00000000       0xa0 CMakeFiles/PWM.elf.dir/STM32F10x_FWLib/Src/stm32f10x_can.c.obj
 .debug_info    0x00000000      0xd16 CMakeFiles/PWM.elf.dir/STM32F10x_FWLib/Src/stm32f10x_can.c.obj
 .debug_abbrev  0x00000000      0x22c CMakeFiles/PWM.elf.dir/STM32F10x_FWLib/Src/stm32f10x_can.c.obj
 .debug_loc     0x00000000      0xd15 CMakeFiles/PWM.elf.dir/STM32F10x_FWLib/Src/stm32f10x_can.c.obj
 .debug_aranges
                0x00000000       0xe0 CMakeFiles/PWM.elf.dir/STM32F10x_FWLib/Src/stm32f10x_can.c.obj
 .debug_ranges  0x00000000       0xd0 CMakeFiles/PWM.elf.dir/STM32F10x_FWLib/Src/stm32f10x_can.c.obj
 .debug_line    0x00000000      0x5a1 CMakeFiles/PWM.elf.dir/STM32F10x_FWLib/Src/stm32f10x_can.c.obj
 .debug_str     0x00000000      0x791 CMakeFiles/PWM.elf.dir/STM32F10x_FWLib/Src/stm32f10x_can.c.obj
 .comment       0x00000000       0x6f CMakeFiles/PWM.elf.dir/STM32F10x_FWLib/Src/stm32f10x_can.c.obj
 .debug_frame   0x00000000      0x1e0 CMakeFiles/PWM.elf.dir/STM32F10x_FWLib/Src/stm32f10x_can.c.obj
 .ARM.attributes
                0x00000000       0x33 CMakeFiles/PWM.elf.dir/STM32F10x_FWLib/Src/stm32f10x_can.c.obj
 .text          0x00000000        0x0 CMakeFiles/PWM.elf.dir/STM32F10x_FWLib/Src/stm32f10x_cec.c.obj
 .data          0x00000000        0x0 CMakeFiles/PWM.elf.dir/STM32F10x_FWLib/Src/stm32f10x_cec.c.obj
 .bss           0x00000000        0x0 CMakeFiles/PWM.elf.dir/STM32F10x_FWLib/Src/stm32f10x_cec.c.obj
 .text.CEC_DeInit
                0x00000000       0x18 CMakeFiles/PWM.elf.dir/STM32F10x_FWLib/Src/stm32f10x_cec.c.obj
 .text.CEC_Init
                0x00000000       0x1c CMakeFiles/PWM.elf.dir/STM32F10x_FWLib/Src/stm32f10x_cec.c.obj
 .text.CEC_Cmd  0x00000000       0x1c CMakeFiles/PWM.elf.dir/STM32F10x_FWLib/Src/stm32f10x_cec.c.obj
 .text.CEC_ITConfig
                0x00000000        0xc CMakeFiles/PWM.elf.dir/STM32F10x_FWLib/Src/stm32f10x_cec.c.obj
 .text.CEC_OwnAddressConfig
                0x00000000        0xc CMakeFiles/PWM.elf.dir/STM32F10x_FWLib/Src/stm32f10x_cec.c.obj
 .text.CEC_SetPrescaler
                0x00000000        0xc CMakeFiles/PWM.elf.dir/STM32F10x_FWLib/Src/stm32f10x_cec.c.obj
 .text.CEC_SendDataByte
                0x00000000        0xc CMakeFiles/PWM.elf.dir/STM32F10x_FWLib/Src/stm32f10x_cec.c.obj
 .text.CEC_ReceiveDataByte
                0x00000000        0xc CMakeFiles/PWM.elf.dir/STM32F10x_FWLib/Src/stm32f10x_cec.c.obj
 .text.CEC_StartOfMessage
                0x00000000        0xc CMakeFiles/PWM.elf.dir/STM32F10x_FWLib/Src/stm32f10x_cec.c.obj
 .text.CEC_EndOfMessageCmd
                0x00000000        0xc CMakeFiles/PWM.elf.dir/STM32F10x_FWLib/Src/stm32f10x_cec.c.obj
 .text.CEC_GetFlagStatus
                0x00000000       0x28 CMakeFiles/PWM.elf.dir/STM32F10x_FWLib/Src/stm32f10x_cec.c.obj
 .text.CEC_ClearFlag
                0x00000000       0x1c CMakeFiles/PWM.elf.dir/STM32F10x_FWLib/Src/stm32f10x_cec.c.obj
 .text.CEC_GetITStatus
                0x00000000       0x20 CMakeFiles/PWM.elf.dir/STM32F10x_FWLib/Src/stm32f10x_cec.c.obj
 .text.CEC_ClearITPendingBit
                0x00000000       0x1c CMakeFiles/PWM.elf.dir/STM32F10x_FWLib/Src/stm32f10x_cec.c.obj
 .debug_info    0x00000000      0x454 CMakeFiles/PWM.elf.dir/STM32F10x_FWLib/Src/stm32f10x_cec.c.obj
 .debug_abbrev  0x00000000      0x1dc CMakeFiles/PWM.elf.dir/STM32F10x_FWLib/Src/stm32f10x_cec.c.obj
 .debug_loc     0x00000000      0x21a CMakeFiles/PWM.elf.dir/STM32F10x_FWLib/Src/stm32f10x_cec.c.obj
 .debug_aranges
                0x00000000       0x88 CMakeFiles/PWM.elf.dir/STM32F10x_FWLib/Src/stm32f10x_cec.c.obj
 .debug_ranges  0x00000000       0x78 CMakeFiles/PWM.elf.dir/STM32F10x_FWLib/Src/stm32f10x_cec.c.obj
 .debug_line    0x00000000      0x349 CMakeFiles/PWM.elf.dir/STM32F10x_FWLib/Src/stm32f10x_cec.c.obj
 .debug_str     0x00000000      0x3d9 CMakeFiles/PWM.elf.dir/STM32F10x_FWLib/Src/stm32f10x_cec.c.obj
 .comment       0x00000000       0x6f CMakeFiles/PWM.elf.dir/STM32F10x_FWLib/Src/stm32f10x_cec.c.obj
 .debug_frame   0x00000000      0x104 CMakeFiles/PWM.elf.dir/STM32F10x_FWLib/Src/stm32f10x_cec.c.obj
 .ARM.attributes
                0x00000000       0x33 CMakeFiles/PWM.elf.dir/STM32F10x_FWLib/Src/stm32f10x_cec.c.obj
 .text          0x00000000        0x0 CMakeFiles/PWM.elf.dir/STM32F10x_FWLib/Src/stm32f10x_crc.c.obj
 .data          0x00000000        0x0 CMakeFiles/PWM.elf.dir/STM32F10x_FWLib/Src/stm32f10x_crc.c.obj
 .bss           0x00000000        0x0 CMakeFiles/PWM.elf.dir/STM32F10x_FWLib/Src/stm32f10x_crc.c.obj
 .text.CRC_ResetDR
                0x00000000        0xc CMakeFiles/PWM.elf.dir/STM32F10x_FWLib/Src/stm32f10x_crc.c.obj
 .text.CRC_CalcCRC
                0x00000000        0xc CMakeFiles/PWM.elf.dir/STM32F10x_FWLib/Src/stm32f10x_crc.c.obj
 .text.CRC_CalcBlockCRC
                0x00000000       0x20 CMakeFiles/PWM.elf.dir/STM32F10x_FWLib/Src/stm32f10x_crc.c.obj
 .text.CRC_GetCRC
                0x00000000        0xc CMakeFiles/PWM.elf.dir/STM32F10x_FWLib/Src/stm32f10x_crc.c.obj
 .text.CRC_SetIDRegister
                0x00000000        0xc CMakeFiles/PWM.elf.dir/STM32F10x_FWLib/Src/stm32f10x_crc.c.obj
 .text.CRC_GetIDRegister
                0x00000000        0xc CMakeFiles/PWM.elf.dir/STM32F10x_FWLib/Src/stm32f10x_crc.c.obj
 .debug_info    0x00000000      0x1f3 CMakeFiles/PWM.elf.dir/STM32F10x_FWLib/Src/stm32f10x_crc.c.obj
 .debug_abbrev  0x00000000      0x123 CMakeFiles/PWM.elf.dir/STM32F10x_FWLib/Src/stm32f10x_crc.c.obj
 .debug_loc     0x00000000       0x5f CMakeFiles/PWM.elf.dir/STM32F10x_FWLib/Src/stm32f10x_crc.c.obj
 .debug_aranges
                0x00000000       0x48 CMakeFiles/PWM.elf.dir/STM32F10x_FWLib/Src/stm32f10x_crc.c.obj
 .debug_ranges  0x00000000       0x38 CMakeFiles/PWM.elf.dir/STM32F10x_FWLib/Src/stm32f10x_crc.c.obj
 .debug_line    0x00000000      0x248 CMakeFiles/PWM.elf.dir/STM32F10x_FWLib/Src/stm32f10x_crc.c.obj
 .debug_str     0x00000000      0x287 CMakeFiles/PWM.elf.dir/STM32F10x_FWLib/Src/stm32f10x_crc.c.obj
 .comment       0x00000000       0x6f CMakeFiles/PWM.elf.dir/STM32F10x_FWLib/Src/stm32f10x_crc.c.obj
 .debug_frame   0x00000000       0x7c CMakeFiles/PWM.elf.dir/STM32F10x_FWLib/Src/stm32f10x_crc.c.obj
 .ARM.attributes
                0x00000000       0x33 CMakeFiles/PWM.elf.dir/STM32F10x_FWLib/Src/stm32f10x_crc.c.obj
 .text          0x00000000        0x0 CMakeFiles/PWM.elf.dir/STM32F10x_FWLib/Src/stm32f10x_dac.c.obj
 .data          0x00000000        0x0 CMakeFiles/PWM.elf.dir/STM32F10x_FWLib/Src/stm32f10x_dac.c.obj
 .bss           0x00000000        0x0 CMakeFiles/PWM.elf.dir/STM32F10x_FWLib/Src/stm32f10x_dac.c.obj
 .text.DAC_DeInit
                0x00000000       0x18 CMakeFiles/PWM.elf.dir/STM32F10x_FWLib/Src/stm32f10x_dac.c.obj
 .text.DAC_Init
                0x00000000       0x30 CMakeFiles/PWM.elf.dir/STM32F10x_FWLib/Src/stm32f10x_dac.c.obj
 .text.DAC_StructInit
                0x00000000        0xc CMakeFiles/PWM.elf.dir/STM32F10x_FWLib/Src/stm32f10x_dac.c.obj
 .text.DAC_Cmd  0x00000000       0x28 CMakeFiles/PWM.elf.dir/STM32F10x_FWLib/Src/stm32f10x_dac.c.obj
 .text.DAC_DMACmd
                0x00000000       0x2c CMakeFiles/PWM.elf.dir/STM32F10x_FWLib/Src/stm32f10x_dac.c.obj
 .text.DAC_SoftwareTriggerCmd
                0x00000000       0x2c CMakeFiles/PWM.elf.dir/STM32F10x_FWLib/Src/stm32f10x_dac.c.obj
 .text.DAC_DualSoftwareTriggerCmd
                0x00000000       0x20 CMakeFiles/PWM.elf.dir/STM32F10x_FWLib/Src/stm32f10x_dac.c.obj
 .text.DAC_WaveGenerationCmd
                0x00000000       0x20 CMakeFiles/PWM.elf.dir/STM32F10x_FWLib/Src/stm32f10x_dac.c.obj
 .text.DAC_SetChannel1Data
                0x00000000       0x20 CMakeFiles/PWM.elf.dir/STM32F10x_FWLib/Src/stm32f10x_dac.c.obj
 .text.DAC_SetChannel2Data
                0x00000000       0x20 CMakeFiles/PWM.elf.dir/STM32F10x_FWLib/Src/stm32f10x_dac.c.obj
 .text.DAC_SetDualChannelData
                0x00000000       0x18 CMakeFiles/PWM.elf.dir/STM32F10x_FWLib/Src/stm32f10x_dac.c.obj
 .text.DAC_GetDataOutputValue
                0x00000000       0x24 CMakeFiles/PWM.elf.dir/STM32F10x_FWLib/Src/stm32f10x_dac.c.obj
 .debug_info    0x00000000      0x4e8 CMakeFiles/PWM.elf.dir/STM32F10x_FWLib/Src/stm32f10x_dac.c.obj
 .debug_abbrev  0x00000000      0x1bf CMakeFiles/PWM.elf.dir/STM32F10x_FWLib/Src/stm32f10x_dac.c.obj
 .debug_loc     0x00000000      0x34c CMakeFiles/PWM.elf.dir/STM32F10x_FWLib/Src/stm32f10x_dac.c.obj
 .debug_aranges
                0x00000000       0x78 CMakeFiles/PWM.elf.dir/STM32F10x_FWLib/Src/stm32f10x_dac.c.obj
 .debug_ranges  0x00000000       0x68 CMakeFiles/PWM.elf.dir/STM32F10x_FWLib/Src/stm32f10x_dac.c.obj
 .debug_line    0x00000000      0x32b CMakeFiles/PWM.elf.dir/STM32F10x_FWLib/Src/stm32f10x_dac.c.obj
 .debug_str     0x00000000      0x412 CMakeFiles/PWM.elf.dir/STM32F10x_FWLib/Src/stm32f10x_dac.c.obj
 .comment       0x00000000       0x6f CMakeFiles/PWM.elf.dir/STM32F10x_FWLib/Src/stm32f10x_dac.c.obj
 .debug_frame   0x00000000       0xfc CMakeFiles/PWM.elf.dir/STM32F10x_FWLib/Src/stm32f10x_dac.c.obj
 .ARM.attributes
                0x00000000       0x33 CMakeFiles/PWM.elf.dir/STM32F10x_FWLib/Src/stm32f10x_dac.c.obj
 .text          0x00000000        0x0 CMakeFiles/PWM.elf.dir/STM32F10x_FWLib/Src/stm32f10x_dbgmcu.c.obj
 .data          0x00000000        0x0 CMakeFiles/PWM.elf.dir/STM32F10x_FWLib/Src/stm32f10x_dbgmcu.c.obj
 .bss           0x00000000        0x0 CMakeFiles/PWM.elf.dir/STM32F10x_FWLib/Src/stm32f10x_dbgmcu.c.obj
 .text.DBGMCU_GetREVID
                0x00000000        0xc CMakeFiles/PWM.elf.dir/STM32F10x_FWLib/Src/stm32f10x_dbgmcu.c.obj
 .text.DBGMCU_GetDEVID
                0x00000000       0x10 CMakeFiles/PWM.elf.dir/STM32F10x_FWLib/Src/stm32f10x_dbgmcu.c.obj
 .text.DBGMCU_Config
                0x00000000       0x1c CMakeFiles/PWM.elf.dir/STM32F10x_FWLib/Src/stm32f10x_dbgmcu.c.obj
 .debug_info    0x00000000      0x14c CMakeFiles/PWM.elf.dir/STM32F10x_FWLib/Src/stm32f10x_dbgmcu.c.obj
 .debug_abbrev  0x00000000       0xef CMakeFiles/PWM.elf.dir/STM32F10x_FWLib/Src/stm32f10x_dbgmcu.c.obj
 .debug_loc     0x00000000       0x3a CMakeFiles/PWM.elf.dir/STM32F10x_FWLib/Src/stm32f10x_dbgmcu.c.obj
 .debug_aranges
                0x00000000       0x30 CMakeFiles/PWM.elf.dir/STM32F10x_FWLib/Src/stm32f10x_dbgmcu.c.obj
 .debug_ranges  0x00000000       0x20 CMakeFiles/PWM.elf.dir/STM32F10x_FWLib/Src/stm32f10x_dbgmcu.c.obj
 .debug_line    0x00000000      0x205 CMakeFiles/PWM.elf.dir/STM32F10x_FWLib/Src/stm32f10x_dbgmcu.c.obj
 .debug_str     0x00000000      0x23e CMakeFiles/PWM.elf.dir/STM32F10x_FWLib/Src/stm32f10x_dbgmcu.c.obj
 .comment       0x00000000       0x6f CMakeFiles/PWM.elf.dir/STM32F10x_FWLib/Src/stm32f10x_dbgmcu.c.obj
 .debug_frame   0x00000000       0x40 CMakeFiles/PWM.elf.dir/STM32F10x_FWLib/Src/stm32f10x_dbgmcu.c.obj
 .ARM.attributes
                0x00000000       0x33 CMakeFiles/PWM.elf.dir/STM32F10x_FWLib/Src/stm32f10x_dbgmcu.c.obj
 .text          0x00000000        0x0 CMakeFiles/PWM.elf.dir/STM32F10x_FWLib/Src/stm32f10x_dma.c.obj
 .data          0x00000000        0x0 CMakeFiles/PWM.elf.dir/STM32F10x_FWLib/Src/stm32f10x_dma.c.obj
 .bss           0x00000000        0x0 CMakeFiles/PWM.elf.dir/STM32F10x_FWLib/Src/stm32f10x_dma.c.obj
 .text.DMA_DeInit
                0x00000000      0x128 CMakeFiles/PWM.elf.dir/STM32F10x_FWLib/Src/stm32f10x_dma.c.obj
 .text.DMA_Init
                0x00000000       0x40 CMakeFiles/PWM.elf.dir/STM32F10x_FWLib/Src/stm32f10x_dma.c.obj
 .text.DMA_StructInit
                0x00000000       0x1c CMakeFiles/PWM.elf.dir/STM32F10x_FWLib/Src/stm32f10x_dma.c.obj
 .text.DMA_Cmd  0x00000000       0x1c CMakeFiles/PWM.elf.dir/STM32F10x_FWLib/Src/stm32f10x_dma.c.obj
 .text.DMA_ITConfig
                0x00000000       0x14 CMakeFiles/PWM.elf.dir/STM32F10x_FWLib/Src/stm32f10x_dma.c.obj
 .text.DMA_SetCurrDataCounter
                0x00000000        0x4 CMakeFiles/PWM.elf.dir/STM32F10x_FWLib/Src/stm32f10x_dma.c.obj
 .text.DMA_GetCurrDataCounter
                0x00000000        0x8 CMakeFiles/PWM.elf.dir/STM32F10x_FWLib/Src/stm32f10x_dma.c.obj
 .text.DMA_GetFlagStatus
                0x00000000       0x24 CMakeFiles/PWM.elf.dir/STM32F10x_FWLib/Src/stm32f10x_dma.c.obj
 .text.DMA_ClearFlag
                0x00000000       0x1c CMakeFiles/PWM.elf.dir/STM32F10x_FWLib/Src/stm32f10x_dma.c.obj
 .text.DMA_GetITStatus
                0x00000000       0x24 CMakeFiles/PWM.elf.dir/STM32F10x_FWLib/Src/stm32f10x_dma.c.obj
 .text.DMA_ClearITPendingBit
                0x00000000       0x1c CMakeFiles/PWM.elf.dir/STM32F10x_FWLib/Src/stm32f10x_dma.c.obj
 .debug_info    0x00000000      0x462 CMakeFiles/PWM.elf.dir/STM32F10x_FWLib/Src/stm32f10x_dma.c.obj
 .debug_abbrev  0x00000000      0x166 CMakeFiles/PWM.elf.dir/STM32F10x_FWLib/Src/stm32f10x_dma.c.obj
 .debug_loc     0x00000000      0x1ba CMakeFiles/PWM.elf.dir/STM32F10x_FWLib/Src/stm32f10x_dma.c.obj
 .debug_aranges
                0x00000000       0x70 CMakeFiles/PWM.elf.dir/STM32F10x_FWLib/Src/stm32f10x_dma.c.obj
 .debug_ranges  0x00000000       0x60 CMakeFiles/PWM.elf.dir/STM32F10x_FWLib/Src/stm32f10x_dma.c.obj
 .debug_line    0x00000000      0x32c CMakeFiles/PWM.elf.dir/STM32F10x_FWLib/Src/stm32f10x_dma.c.obj
 .debug_str     0x00000000      0x403 CMakeFiles/PWM.elf.dir/STM32F10x_FWLib/Src/stm32f10x_dma.c.obj
 .comment       0x00000000       0x6f CMakeFiles/PWM.elf.dir/STM32F10x_FWLib/Src/stm32f10x_dma.c.obj
 .debug_frame   0x00000000       0xcc CMakeFiles/PWM.elf.dir/STM32F10x_FWLib/Src/stm32f10x_dma.c.obj
 .ARM.attributes
                0x00000000       0x33 CMakeFiles/PWM.elf.dir/STM32F10x_FWLib/Src/stm32f10x_dma.c.obj
 .text          0x00000000        0x0 CMakeFiles/PWM.elf.dir/STM32F10x_FWLib/Src/stm32f10x_exti.c.obj
 .data          0x00000000        0x0 CMakeFiles/PWM.elf.dir/STM32F10x_FWLib/Src/stm32f10x_exti.c.obj
 .bss           0x00000000        0x0 CMakeFiles/PWM.elf.dir/STM32F10x_FWLib/Src/stm32f10x_exti.c.obj
 .text.EXTI_DeInit
                0x00000000       0x1c CMakeFiles/PWM.elf.dir/STM32F10x_FWLib/Src/stm32f10x_exti.c.obj
 .text.EXTI_Init
                0x00000000       0x90 CMakeFiles/PWM.elf.dir/STM32F10x_FWLib/Src/stm32f10x_exti.c.obj
 .text.EXTI_StructInit
                0x00000000       0x10 CMakeFiles/PWM.elf.dir/STM32F10x_FWLib/Src/stm32f10x_exti.c.obj
 .text.EXTI_GenerateSWInterrupt
                0x00000000       0x10 CMakeFiles/PWM.elf.dir/STM32F10x_FWLib/Src/stm32f10x_exti.c.obj
 .text.EXTI_GetFlagStatus
                0x00000000       0x14 CMakeFiles/PWM.elf.dir/STM32F10x_FWLib/Src/stm32f10x_exti.c.obj
 .text.EXTI_ClearFlag
                0x00000000        0xc CMakeFiles/PWM.elf.dir/STM32F10x_FWLib/Src/stm32f10x_exti.c.obj
 .text.EXTI_GetITStatus
                0x00000000       0x20 CMakeFiles/PWM.elf.dir/STM32F10x_FWLib/Src/stm32f10x_exti.c.obj
 .text          0x00000000        0x0 CMakeFiles/PWM.elf.dir/STM32F10x_FWLib/Src/stm32f10x_flash.c.obj
 .data          0x00000000        0x0 CMakeFiles/PWM.elf.dir/STM32F10x_FWLib/Src/stm32f10x_flash.c.obj
 .bss           0x00000000        0x0 CMakeFiles/PWM.elf.dir/STM32F10x_FWLib/Src/stm32f10x_flash.c.obj
 .text.FLASH_SetLatency
                0x00000000       0x14 CMakeFiles/PWM.elf.dir/STM32F10x_FWLib/Src/stm32f10x_flash.c.obj
 .text.FLASH_HalfCycleAccessCmd
                0x00000000       0x18 CMakeFiles/PWM.elf.dir/STM32F10x_FWLib/Src/stm32f10x_flash.c.obj
 .text.FLASH_PrefetchBufferCmd
                0x00000000       0x18 CMakeFiles/PWM.elf.dir/STM32F10x_FWLib/Src/stm32f10x_flash.c.obj
 .text.FLASH_Unlock
                0x00000000       0x18 CMakeFiles/PWM.elf.dir/STM32F10x_FWLib/Src/stm32f10x_flash.c.obj
 .text.FLASH_UnlockBank1
                0x00000000       0x18 CMakeFiles/PWM.elf.dir/STM32F10x_FWLib/Src/stm32f10x_flash.c.obj
 .text.FLASH_Lock
                0x00000000       0x10 CMakeFiles/PWM.elf.dir/STM32F10x_FWLib/Src/stm32f10x_flash.c.obj
 .text.FLASH_LockBank1
                0x00000000       0x10 CMakeFiles/PWM.elf.dir/STM32F10x_FWLib/Src/stm32f10x_flash.c.obj
 .text.FLASH_GetUserOptionByte
                0x00000000        0xc CMakeFiles/PWM.elf.dir/STM32F10x_FWLib/Src/stm32f10x_flash.c.obj
 .text.FLASH_GetWriteProtectionOptionByte
                0x00000000        0xc CMakeFiles/PWM.elf.dir/STM32F10x_FWLib/Src/stm32f10x_flash.c.obj
 .text.FLASH_GetReadOutProtectionStatus
                0x00000000       0x18 CMakeFiles/PWM.elf.dir/STM32F10x_FWLib/Src/stm32f10x_flash.c.obj
 .text.FLASH_GetPrefetchBufferStatus
                0x00000000       0x18 CMakeFiles/PWM.elf.dir/STM32F10x_FWLib/Src/stm32f10x_flash.c.obj
 .text.FLASH_ITConfig
                0x00000000       0x1c CMakeFiles/PWM.elf.dir/STM32F10x_FWLib/Src/stm32f10x_flash.c.obj
 .text.FLASH_GetFlagStatus
                0x00000000       0x28 CMakeFiles/PWM.elf.dir/STM32F10x_FWLib/Src/stm32f10x_flash.c.obj
 .text.FLASH_ClearFlag
                0x00000000        0xc CMakeFiles/PWM.elf.dir/STM32F10x_FWLib/Src/stm32f10x_flash.c.obj
 .text.FLASH_GetStatus
                0x00000000       0x34 CMakeFiles/PWM.elf.dir/STM32F10x_FWLib/Src/stm32f10x_flash.c.obj
 .text.FLASH_GetBank1Status
                0x00000000       0x34 CMakeFiles/PWM.elf.dir/STM32F10x_FWLib/Src/stm32f10x_flash.c.obj
 .text.FLASH_WaitForLastOperation
                0x00000000       0x20 CMakeFiles/PWM.elf.dir/STM32F10x_FWLib/Src/stm32f10x_flash.c.obj
 .text.FLASH_ErasePage
                0x00000000       0x40 CMakeFiles/PWM.elf.dir/STM32F10x_FWLib/Src/stm32f10x_flash.c.obj
 .text.FLASH_EraseAllPages
                0x00000000       0x3c CMakeFiles/PWM.elf.dir/STM32F10x_FWLib/Src/stm32f10x_flash.c.obj
 .text.FLASH_EraseOptionBytes
                0x00000000       0x98 CMakeFiles/PWM.elf.dir/STM32F10x_FWLib/Src/stm32f10x_flash.c.obj
 .text.FLASH_ProgramWord
                0x00000000       0x6c CMakeFiles/PWM.elf.dir/STM32F10x_FWLib/Src/stm32f10x_flash.c.obj
 .text.FLASH_ProgramHalfWord
                0x00000000       0x38 CMakeFiles/PWM.elf.dir/STM32F10x_FWLib/Src/stm32f10x_flash.c.obj
 .text.FLASH_ProgramOptionByteData
                0x00000000       0x50 CMakeFiles/PWM.elf.dir/STM32F10x_FWLib/Src/stm32f10x_flash.c.obj
 .text.FLASH_EnableWriteProtection
                0x00000000       0x9c CMakeFiles/PWM.elf.dir/STM32F10x_FWLib/Src/stm32f10x_flash.c.obj
 .text.FLASH_ReadOutProtection
                0x00000000       0x9c CMakeFiles/PWM.elf.dir/STM32F10x_FWLib/Src/stm32f10x_flash.c.obj
 .text.FLASH_UserOptionByteConfig
                0x00000000       0x60 CMakeFiles/PWM.elf.dir/STM32F10x_FWLib/Src/stm32f10x_flash.c.obj
 .text.FLASH_WaitForLastBank1Operation
                0x00000000       0x20 CMakeFiles/PWM.elf.dir/STM32F10x_FWLib/Src/stm32f10x_flash.c.obj
 .text.FLASH_EraseAllBank1Pages
                0x00000000       0x3c CMakeFiles/PWM.elf.dir/STM32F10x_FWLib/Src/stm32f10x_flash.c.obj
 .debug_info    0x00000000      0x9f5 CMakeFiles/PWM.elf.dir/STM32F10x_FWLib/Src/stm32f10x_flash.c.obj
 .debug_abbrev  0x00000000      0x1c0 CMakeFiles/PWM.elf.dir/STM32F10x_FWLib/Src/stm32f10x_flash.c.obj
 .debug_loc     0x00000000      0x718 CMakeFiles/PWM.elf.dir/STM32F10x_FWLib/Src/stm32f10x_flash.c.obj
 .debug_aranges
                0x00000000       0xf8 CMakeFiles/PWM.elf.dir/STM32F10x_FWLib/Src/stm32f10x_flash.c.obj
 .debug_ranges  0x00000000       0xe8 CMakeFiles/PWM.elf.dir/STM32F10x_FWLib/Src/stm32f10x_flash.c.obj
 .debug_line    0x00000000      0x4ea CMakeFiles/PWM.elf.dir/STM32F10x_FWLib/Src/stm32f10x_flash.c.obj
 .debug_str     0x00000000      0x634 CMakeFiles/PWM.elf.dir/STM32F10x_FWLib/Src/stm32f10x_flash.c.obj
 .comment       0x00000000       0x6f CMakeFiles/PWM.elf.dir/STM32F10x_FWLib/Src/stm32f10x_flash.c.obj
 .debug_frame   0x00000000      0x250 CMakeFiles/PWM.elf.dir/STM32F10x_FWLib/Src/stm32f10x_flash.c.obj
 .ARM.attributes
                0x00000000       0x33 CMakeFiles/PWM.elf.dir/STM32F10x_FWLib/Src/stm32f10x_flash.c.obj
 .text          0x00000000        0x0 CMakeFiles/PWM.elf.dir/STM32F10x_FWLib/Src/stm32f10x_fsmc.c.obj
 .data          0x00000000        0x0 CMakeFiles/PWM.elf.dir/STM32F10x_FWLib/Src/stm32f10x_fsmc.c.obj
 .bss           0x00000000        0x0 CMakeFiles/PWM.elf.dir/STM32F10x_FWLib/Src/stm32f10x_fsmc.c.obj
 .text.FSMC_NORSRAMDeInit
                0x00000000       0x38 CMakeFiles/PWM.elf.dir/STM32F10x_FWLib/Src/stm32f10x_fsmc.c.obj
 .text.FSMC_NANDDeInit
                0x00000000       0x34 CMakeFiles/PWM.elf.dir/STM32F10x_FWLib/Src/stm32f10x_fsmc.c.obj
 .text.FSMC_PCCARDDeInit
                0x00000000       0x1c CMakeFiles/PWM.elf.dir/STM32F10x_FWLib/Src/stm32f10x_fsmc.c.obj
 .text.FSMC_NORSRAMInit
                0x00000000       0xc8 CMakeFiles/PWM.elf.dir/STM32F10x_FWLib/Src/stm32f10x_fsmc.c.obj
 .text.FSMC_NANDInit
                0x00000000       0x70 CMakeFiles/PWM.elf.dir/STM32F10x_FWLib/Src/stm32f10x_fsmc.c.obj
 .text.FSMC_PCCARDInit
                0x00000000       0x68 CMakeFiles/PWM.elf.dir/STM32F10x_FWLib/Src/stm32f10x_fsmc.c.obj
 .text.FSMC_NORSRAMStructInit
                0x00000000       0x68 CMakeFiles/PWM.elf.dir/STM32F10x_FWLib/Src/stm32f10x_fsmc.c.obj
 .text.FSMC_NANDStructInit
                0x00000000       0x38 CMakeFiles/PWM.elf.dir/STM32F10x_FWLib/Src/stm32f10x_fsmc.c.obj
 .text.FSMC_PCCARDStructInit
                0x00000000       0x3c CMakeFiles/PWM.elf.dir/STM32F10x_FWLib/Src/stm32f10x_fsmc.c.obj
 .text.FSMC_NORSRAMCmd
                0x00000000       0x2c CMakeFiles/PWM.elf.dir/STM32F10x_FWLib/Src/stm32f10x_fsmc.c.obj
 .text.FSMC_NANDCmd
                0x00000000       0x48 CMakeFiles/PWM.elf.dir/STM32F10x_FWLib/Src/stm32f10x_fsmc.c.obj
 .text.FSMC_PCCARDCmd
                0x00000000       0x24 CMakeFiles/PWM.elf.dir/STM32F10x_FWLib/Src/stm32f10x_fsmc.c.obj
 .text.FSMC_NANDECCCmd
                0x00000000       0x48 CMakeFiles/PWM.elf.dir/STM32F10x_FWLib/Src/stm32f10x_fsmc.c.obj
 .text.FSMC_GetECC
                0x00000000       0x18 CMakeFiles/PWM.elf.dir/STM32F10x_FWLib/Src/stm32f10x_fsmc.c.obj
 .text.FSMC_ITConfig
                0x00000000       0x64 CMakeFiles/PWM.elf.dir/STM32F10x_FWLib/Src/stm32f10x_fsmc.c.obj
 .text.FSMC_GetFlagStatus
                0x00000000       0x34 CMakeFiles/PWM.elf.dir/STM32F10x_FWLib/Src/stm32f10x_fsmc.c.obj
 .text.FSMC_ClearFlag
                0x00000000       0x3c CMakeFiles/PWM.elf.dir/STM32F10x_FWLib/Src/stm32f10x_fsmc.c.obj
 .text.FSMC_GetITStatus
                0x00000000       0x3c CMakeFiles/PWM.elf.dir/STM32F10x_FWLib/Src/stm32f10x_fsmc.c.obj
 .text.FSMC_ClearITPendingBit
                0x00000000       0x3c CMakeFiles/PWM.elf.dir/STM32F10x_FWLib/Src/stm32f10x_fsmc.c.obj
 .debug_info    0x00000000      0x8f1 CMakeFiles/PWM.elf.dir/STM32F10x_FWLib/Src/stm32f10x_fsmc.c.obj
 .debug_abbrev  0x00000000      0x190 CMakeFiles/PWM.elf.dir/STM32F10x_FWLib/Src/stm32f10x_fsmc.c.obj
 .debug_loc     0x00000000      0x586 CMakeFiles/PWM.elf.dir/STM32F10x_FWLib/Src/stm32f10x_fsmc.c.obj
 .debug_aranges
                0x00000000       0xb0 CMakeFiles/PWM.elf.dir/STM32F10x_FWLib/Src/stm32f10x_fsmc.c.obj
 .debug_ranges  0x00000000       0xa0 CMakeFiles/PWM.elf.dir/STM32F10x_FWLib/Src/stm32f10x_fsmc.c.obj
 .debug_line    0x00000000      0x474 CMakeFiles/PWM.elf.dir/STM32F10x_FWLib/Src/stm32f10x_fsmc.c.obj
 .debug_str     0x00000000      0x7c6 CMakeFiles/PWM.elf.dir/STM32F10x_FWLib/Src/stm32f10x_fsmc.c.obj
 .comment       0x00000000       0x6f CMakeFiles/PWM.elf.dir/STM32F10x_FWLib/Src/stm32f10x_fsmc.c.obj
 .debug_frame   0x00000000      0x170 CMakeFiles/PWM.elf.dir/STM32F10x_FWLib/Src/stm32f10x_fsmc.c.obj
 .ARM.attributes
                0x00000000       0x33 CMakeFiles/PWM.elf.dir/STM32F10x_FWLib/Src/stm32f10x_fsmc.c.obj
 .text          0x00000000        0x0 CMakeFiles/PWM.elf.dir/STM32F10x_FWLib/Src/stm32f10x_gpio.c.obj
 .data          0x00000000        0x0 CMakeFiles/PWM.elf.dir/STM32F10x_FWLib/Src/stm32f10x_gpio.c.obj
 .bss           0x00000000        0x0 CMakeFiles/PWM.elf.dir/STM32F10x_FWLib/Src/stm32f10x_gpio.c.obj
 .text.GPIO_DeInit
                0x00000000       0xcc CMakeFiles/PWM.elf.dir/STM32F10x_FWLib/Src/stm32f10x_gpio.c.obj
 .text.GPIO_AFIODeInit
                0x00000000       0x14 CMakeFiles/PWM.elf.dir/STM32F10x_FWLib/Src/stm32f10x_gpio.c.obj
 .text.GPIO_StructInit
                0x00000000       0x10 CMakeFiles/PWM.elf.dir/STM32F10x_FWLib/Src/stm32f10x_gpio.c.obj
 .text.GPIO_ReadInputData
                0x00000000        0x8 CMakeFiles/PWM.elf.dir/STM32F10x_FWLib/Src/stm32f10x_gpio.c.obj
 .text.GPIO_ReadOutputDataBit
                0x00000000       0x10 CMakeFiles/PWM.elf.dir/STM32F10x_FWLib/Src/stm32f10x_gpio.c.obj
 .text.GPIO_ReadOutputData
                0x00000000        0x8 CMakeFiles/PWM.elf.dir/STM32F10x_FWLib/Src/stm32f10x_gpio.c.obj
 .text.GPIO_ResetBits
                0x00000000        0x4 CMakeFiles/PWM.elf.dir/STM32F10x_FWLib/Src/stm32f10x_gpio.c.obj
 .text.GPIO_WriteBit
                0x00000000        0xc CMakeFiles/PWM.elf.dir/STM32F10x_FWLib/Src/stm32f10x_gpio.c.obj
 .text.GPIO_Write
                0x00000000        0x4 CMakeFiles/PWM.elf.dir/STM32F10x_FWLib/Src/stm32f10x_gpio.c.obj
 .text.GPIO_PinLockConfig
                0x00000000       0x10 CMakeFiles/PWM.elf.dir/STM32F10x_FWLib/Src/stm32f10x_gpio.c.obj
 .text.GPIO_EventOutputConfig
                0x00000000       0x1c CMakeFiles/PWM.elf.dir/STM32F10x_FWLib/Src/stm32f10x_gpio.c.obj
 .text.GPIO_EventOutputCmd
                0x00000000        0xc CMakeFiles/PWM.elf.dir/STM32F10x_FWLib/Src/stm32f10x_gpio.c.obj
 .text.GPIO_PinRemapConfig
                0x00000000       0x74 CMakeFiles/PWM.elf.dir/STM32F10x_FWLib/Src/stm32f10x_gpio.c.obj
 .text.GPIO_EXTILineConfig
                0x00000000       0x34 CMakeFiles/PWM.elf.dir/STM32F10x_FWLib/Src/stm32f10x_gpio.c.obj
 .text.GPIO_ETH_MediaInterfaceConfig
                0x00000000        0xc CMakeFiles/PWM.elf.dir/STM32F10x_FWLib/Src/stm32f10x_gpio.c.obj
 .text          0x00000000        0x0 CMakeFiles/PWM.elf.dir/STM32F10x_FWLib/Src/stm32f10x_i2c.c.obj
 .data          0x00000000        0x0 CMakeFiles/PWM.elf.dir/STM32F10x_FWLib/Src/stm32f10x_i2c.c.obj
 .bss           0x00000000        0x0 CMakeFiles/PWM.elf.dir/STM32F10x_FWLib/Src/stm32f10x_i2c.c.obj
 .text.I2C_DeInit
                0x00000000       0x38 CMakeFiles/PWM.elf.dir/STM32F10x_FWLib/Src/stm32f10x_i2c.c.obj
 .text.I2C_Init
                0x00000000       0xdc CMakeFiles/PWM.elf.dir/STM32F10x_FWLib/Src/stm32f10x_i2c.c.obj
 .text.I2C_StructInit
                0x00000000       0x1c CMakeFiles/PWM.elf.dir/STM32F10x_FWLib/Src/stm32f10x_i2c.c.obj
 .text.I2C_Cmd  0x00000000       0x1c CMakeFiles/PWM.elf.dir/STM32F10x_FWLib/Src/stm32f10x_i2c.c.obj
 .text.I2C_DMACmd
                0x00000000       0x1c CMakeFiles/PWM.elf.dir/STM32F10x_FWLib/Src/stm32f10x_i2c.c.obj
 .text.I2C_DMALastTransferCmd
                0x00000000       0x1c CMakeFiles/PWM.elf.dir/STM32F10x_FWLib/Src/stm32f10x_i2c.c.obj
 .text.I2C_GenerateSTART
                0x00000000       0x1c CMakeFiles/PWM.elf.dir/STM32F10x_FWLib/Src/stm32f10x_i2c.c.obj
 .text.I2C_GenerateSTOP
                0x00000000       0x1c CMakeFiles/PWM.elf.dir/STM32F10x_FWLib/Src/stm32f10x_i2c.c.obj
 .text.I2C_AcknowledgeConfig
                0x00000000       0x1c CMakeFiles/PWM.elf.dir/STM32F10x_FWLib/Src/stm32f10x_i2c.c.obj
 .text.I2C_OwnAddress2Config
                0x00000000       0x14 CMakeFiles/PWM.elf.dir/STM32F10x_FWLib/Src/stm32f10x_i2c.c.obj
 .text.I2C_DualAddressCmd
                0x00000000       0x1c CMakeFiles/PWM.elf.dir/STM32F10x_FWLib/Src/stm32f10x_i2c.c.obj
 .text.I2C_GeneralCallCmd
                0x00000000       0x1c CMakeFiles/PWM.elf.dir/STM32F10x_FWLib/Src/stm32f10x_i2c.c.obj
 .text.I2C_ITConfig
                0x00000000       0x18 CMakeFiles/PWM.elf.dir/STM32F10x_FWLib/Src/stm32f10x_i2c.c.obj
 .text.I2C_SendData
                0x00000000        0x4 CMakeFiles/PWM.elf.dir/STM32F10x_FWLib/Src/stm32f10x_i2c.c.obj
 .text.I2C_ReceiveData
                0x00000000        0x8 CMakeFiles/PWM.elf.dir/STM32F10x_FWLib/Src/stm32f10x_i2c.c.obj
 .text.I2C_Send7bitAddress
                0x00000000       0x14 CMakeFiles/PWM.elf.dir/STM32F10x_FWLib/Src/stm32f10x_i2c.c.obj
 .text.I2C_ReadRegister
                0x00000000       0x18 CMakeFiles/PWM.elf.dir/STM32F10x_FWLib/Src/stm32f10x_i2c.c.obj
 .text.I2C_SoftwareResetCmd
                0x00000000       0x1c CMakeFiles/PWM.elf.dir/STM32F10x_FWLib/Src/stm32f10x_i2c.c.obj
 .text.I2C_NACKPositionConfig
                0x00000000       0x20 CMakeFiles/PWM.elf.dir/STM32F10x_FWLib/Src/stm32f10x_i2c.c.obj
 .text.I2C_SMBusAlertConfig
                0x00000000       0x20 CMakeFiles/PWM.elf.dir/STM32F10x_FWLib/Src/stm32f10x_i2c.c.obj
 .text.I2C_TransmitPEC
                0x00000000       0x1c CMakeFiles/PWM.elf.dir/STM32F10x_FWLib/Src/stm32f10x_i2c.c.obj
 .text.I2C_PECPositionConfig
                0x00000000       0x20 CMakeFiles/PWM.elf.dir/STM32F10x_FWLib/Src/stm32f10x_i2c.c.obj
 .text.I2C_CalculatePEC
                0x00000000       0x1c CMakeFiles/PWM.elf.dir/STM32F10x_FWLib/Src/stm32f10x_i2c.c.obj
 .text.I2C_GetPEC
                0x00000000        0x8 CMakeFiles/PWM.elf.dir/STM32F10x_FWLib/Src/stm32f10x_i2c.c.obj
 .text.I2C_ARPCmd
                0x00000000       0x1c CMakeFiles/PWM.elf.dir/STM32F10x_FWLib/Src/stm32f10x_i2c.c.obj
 .text.I2C_StretchClockCmd
                0x00000000       0x1c CMakeFiles/PWM.elf.dir/STM32F10x_FWLib/Src/stm32f10x_i2c.c.obj
 .text.I2C_FastModeDutyCycleConfig
                0x00000000       0x20 CMakeFiles/PWM.elf.dir/STM32F10x_FWLib/Src/stm32f10x_i2c.c.obj
 .text.I2C_CheckEvent
                0x00000000       0x1c CMakeFiles/PWM.elf.dir/STM32F10x_FWLib/Src/stm32f10x_i2c.c.obj
 .text.I2C_GetLastEvent
                0x00000000       0x10 CMakeFiles/PWM.elf.dir/STM32F10x_FWLib/Src/stm32f10x_i2c.c.obj
 .text.I2C_GetFlagStatus
                0x00000000       0x38 CMakeFiles/PWM.elf.dir/STM32F10x_FWLib/Src/stm32f10x_i2c.c.obj
 .text.I2C_ClearFlag
                0x00000000        0xc CMakeFiles/PWM.elf.dir/STM32F10x_FWLib/Src/stm32f10x_i2c.c.obj
 .text.I2C_GetITStatus
                0x00000000       0x20 CMakeFiles/PWM.elf.dir/STM32F10x_FWLib/Src/stm32f10x_i2c.c.obj
 .text.I2C_ClearITPendingBit
                0x00000000        0xc CMakeFiles/PWM.elf.dir/STM32F10x_FWLib/Src/stm32f10x_i2c.c.obj
 .debug_info    0x00000000      0xb78 CMakeFiles/PWM.elf.dir/STM32F10x_FWLib/Src/stm32f10x_i2c.c.obj
 .debug_abbrev  0x00000000      0x1c8 CMakeFiles/PWM.elf.dir/STM32F10x_FWLib/Src/stm32f10x_i2c.c.obj
 .debug_loc     0x00000000      0x61c CMakeFiles/PWM.elf.dir/STM32F10x_FWLib/Src/stm32f10x_i2c.c.obj
 .debug_aranges
                0x00000000      0x120 CMakeFiles/PWM.elf.dir/STM32F10x_FWLib/Src/stm32f10x_i2c.c.obj
 .debug_ranges  0x00000000      0x110 CMakeFiles/PWM.elf.dir/STM32F10x_FWLib/Src/stm32f10x_i2c.c.obj
 .debug_line    0x00000000      0x4e3 CMakeFiles/PWM.elf.dir/STM32F10x_FWLib/Src/stm32f10x_i2c.c.obj
 .debug_str     0x00000000      0x6db CMakeFiles/PWM.elf.dir/STM32F10x_FWLib/Src/stm32f10x_i2c.c.obj
 .comment       0x00000000       0x6f CMakeFiles/PWM.elf.dir/STM32F10x_FWLib/Src/stm32f10x_i2c.c.obj
 .debug_frame   0x00000000      0x24c CMakeFiles/PWM.elf.dir/STM32F10x_FWLib/Src/stm32f10x_i2c.c.obj
 .ARM.attributes
                0x00000000       0x33 CMakeFiles/PWM.elf.dir/STM32F10x_FWLib/Src/stm32f10x_i2c.c.obj
 .text          0x00000000        0x0 CMakeFiles/PWM.elf.dir/STM32F10x_FWLib/Src/stm32f10x_iwdg.c.obj
 .data          0x00000000        0x0 CMakeFiles/PWM.elf.dir/STM32F10x_FWLib/Src/stm32f10x_iwdg.c.obj
 .bss           0x00000000        0x0 CMakeFiles/PWM.elf.dir/STM32F10x_FWLib/Src/stm32f10x_iwdg.c.obj
 .text.IWDG_WriteAccessCmd
                0x00000000        0xc CMakeFiles/PWM.elf.dir/STM32F10x_FWLib/Src/stm32f10x_iwdg.c.obj
 .text.IWDG_SetPrescaler
                0x00000000        0xc CMakeFiles/PWM.elf.dir/STM32F10x_FWLib/Src/stm32f10x_iwdg.c.obj
 .text.IWDG_SetReload
                0x00000000        0xc CMakeFiles/PWM.elf.dir/STM32F10x_FWLib/Src/stm32f10x_iwdg.c.obj
 .text.IWDG_ReloadCounter
                0x00000000       0x10 CMakeFiles/PWM.elf.dir/STM32F10x_FWLib/Src/stm32f10x_iwdg.c.obj
 .text.IWDG_Enable
                0x00000000       0x10 CMakeFiles/PWM.elf.dir/STM32F10x_FWLib/Src/stm32f10x_iwdg.c.obj
 .text.IWDG_GetFlagStatus
                0x00000000       0x14 CMakeFiles/PWM.elf.dir/STM32F10x_FWLib/Src/stm32f10x_iwdg.c.obj
 .debug_info    0x00000000      0x1f7 CMakeFiles/PWM.elf.dir/STM32F10x_FWLib/Src/stm32f10x_iwdg.c.obj
 .debug_abbrev  0x00000000      0x112 CMakeFiles/PWM.elf.dir/STM32F10x_FWLib/Src/stm32f10x_iwdg.c.obj
 .debug_loc     0x00000000       0x59 CMakeFiles/PWM.elf.dir/STM32F10x_FWLib/Src/stm32f10x_iwdg.c.obj
 .debug_aranges
                0x00000000       0x48 CMakeFiles/PWM.elf.dir/STM32F10x_FWLib/Src/stm32f10x_iwdg.c.obj
 .debug_ranges  0x00000000       0x38 CMakeFiles/PWM.elf.dir/STM32F10x_FWLib/Src/stm32f10x_iwdg.c.obj
 .debug_line    0x00000000      0x235 CMakeFiles/PWM.elf.dir/STM32F10x_FWLib/Src/stm32f10x_iwdg.c.obj
 .debug_str     0x00000000      0x2a8 CMakeFiles/PWM.elf.dir/STM32F10x_FWLib/Src/stm32f10x_iwdg.c.obj
 .comment       0x00000000       0x6f CMakeFiles/PWM.elf.dir/STM32F10x_FWLib/Src/stm32f10x_iwdg.c.obj
 .debug_frame   0x00000000       0x70 CMakeFiles/PWM.elf.dir/STM32F10x_FWLib/Src/stm32f10x_iwdg.c.obj
 .ARM.attributes
                0x00000000       0x33 CMakeFiles/PWM.elf.dir/STM32F10x_FWLib/Src/stm32f10x_iwdg.c.obj
 .text          0x00000000        0x0 CMakeFiles/PWM.elf.dir/STM32F10x_FWLib/Src/stm32f10x_pwr.c.obj
 .data          0x00000000        0x0 CMakeFiles/PWM.elf.dir/STM32F10x_FWLib/Src/stm32f10x_pwr.c.obj
 .bss           0x00000000        0x0 CMakeFiles/PWM.elf.dir/STM32F10x_FWLib/Src/stm32f10x_pwr.c.obj
 .text.PWR_DeInit
                0x00000000       0x18 CMakeFiles/PWM.elf.dir/STM32F10x_FWLib/Src/stm32f10x_pwr.c.obj
 .text.PWR_PVDCmd
                0x00000000        0xc CMakeFiles/PWM.elf.dir/STM32F10x_FWLib/Src/stm32f10x_pwr.c.obj
 .text.PWR_PVDLevelConfig
                0x00000000       0x14 CMakeFiles/PWM.elf.dir/STM32F10x_FWLib/Src/stm32f10x_pwr.c.obj
 .text.PWR_WakeUpPinCmd
                0x00000000        0xc CMakeFiles/PWM.elf.dir/STM32F10x_FWLib/Src/stm32f10x_pwr.c.obj
 .text.PWR_EnterSTOPMode
                0x00000000       0x34 CMakeFiles/PWM.elf.dir/STM32F10x_FWLib/Src/stm32f10x_pwr.c.obj
 .text.PWR_EnterSTANDBYMode
                0x00000000       0x20 CMakeFiles/PWM.elf.dir/STM32F10x_FWLib/Src/stm32f10x_pwr.c.obj
 .text.PWR_GetFlagStatus
                0x00000000       0x14 CMakeFiles/PWM.elf.dir/STM32F10x_FWLib/Src/stm32f10x_pwr.c.obj
 .text.PWR_ClearFlag
                0x00000000       0x10 CMakeFiles/PWM.elf.dir/STM32F10x_FWLib/Src/stm32f10x_pwr.c.obj
 .text          0x00000000        0x0 CMakeFiles/PWM.elf.dir/STM32F10x_FWLib/Src/stm32f10x_rcc.c.obj
 .data          0x00000000        0x0 CMakeFiles/PWM.elf.dir/STM32F10x_FWLib/Src/stm32f10x_rcc.c.obj
 .bss           0x00000000        0x0 CMakeFiles/PWM.elf.dir/STM32F10x_FWLib/Src/stm32f10x_rcc.c.obj
 .text.RCC_DeInit
                0x00000000       0x40 CMakeFiles/PWM.elf.dir/STM32F10x_FWLib/Src/stm32f10x_rcc.c.obj
 .text.RCC_HSEConfig
                0x00000000       0x3c CMakeFiles/PWM.elf.dir/STM32F10x_FWLib/Src/stm32f10x_rcc.c.obj
 .text.RCC_AdjustHSICalibrationValue
                0x00000000       0x14 CMakeFiles/PWM.elf.dir/STM32F10x_FWLib/Src/stm32f10x_rcc.c.obj
 .text.RCC_HSICmd
                0x00000000        0xc CMakeFiles/PWM.elf.dir/STM32F10x_FWLib/Src/stm32f10x_rcc.c.obj
 .text.RCC_PLLConfig
                0x00000000       0x14 CMakeFiles/PWM.elf.dir/STM32F10x_FWLib/Src/stm32f10x_rcc.c.obj
 .text.RCC_PLLCmd
                0x00000000        0xc CMakeFiles/PWM.elf.dir/STM32F10x_FWLib/Src/stm32f10x_rcc.c.obj
 .text.RCC_SYSCLKConfig
                0x00000000       0x14 CMakeFiles/PWM.elf.dir/STM32F10x_FWLib/Src/stm32f10x_rcc.c.obj
 .text.RCC_GetSYSCLKSource
                0x00000000       0x10 CMakeFiles/PWM.elf.dir/STM32F10x_FWLib/Src/stm32f10x_rcc.c.obj
 .text.RCC_HCLKConfig
                0x00000000       0x14 CMakeFiles/PWM.elf.dir/STM32F10x_FWLib/Src/stm32f10x_rcc.c.obj
 .text.RCC_PCLK1Config
                0x00000000       0x14 CMakeFiles/PWM.elf.dir/STM32F10x_FWLib/Src/stm32f10x_rcc.c.obj
 .text.RCC_PCLK2Config
                0x00000000       0x14 CMakeFiles/PWM.elf.dir/STM32F10x_FWLib/Src/stm32f10x_rcc.c.obj
 .text.RCC_ITConfig
                0x00000000       0x1c CMakeFiles/PWM.elf.dir/STM32F10x_FWLib/Src/stm32f10x_rcc.c.obj
 .text.RCC_USBCLKConfig
                0x00000000        0xc CMakeFiles/PWM.elf.dir/STM32F10x_FWLib/Src/stm32f10x_rcc.c.obj
 .text.RCC_LSICmd
                0x00000000        0xc CMakeFiles/PWM.elf.dir/STM32F10x_FWLib/Src/stm32f10x_rcc.c.obj
 .text.RCC_AHBPeriphClockCmd
                0x00000000       0x1c CMakeFiles/PWM.elf.dir/STM32F10x_FWLib/Src/stm32f10x_rcc.c.obj
 .text.RCC_APB1PeriphResetCmd
                0x00000000       0x1c CMakeFiles/PWM.elf.dir/STM32F10x_FWLib/Src/stm32f10x_rcc.c.obj
 .text.RCC_ClockSecuritySystemCmd
                0x00000000        0xc CMakeFiles/PWM.elf.dir/STM32F10x_FWLib/Src/stm32f10x_rcc.c.obj
 .text.RCC_MCOConfig
                0x00000000        0xc CMakeFiles/PWM.elf.dir/STM32F10x_FWLib/Src/stm32f10x_rcc.c.obj
 .text.RCC_WaitForHSEStartUp
                0x00000000       0x34 CMakeFiles/PWM.elf.dir/STM32F10x_FWLib/Src/stm32f10x_rcc.c.obj
 .text.RCC_ClearFlag
                0x00000000       0x10 CMakeFiles/PWM.elf.dir/STM32F10x_FWLib/Src/stm32f10x_rcc.c.obj
 .text.RCC_GetITStatus
                0x00000000       0x14 CMakeFiles/PWM.elf.dir/STM32F10x_FWLib/Src/stm32f10x_rcc.c.obj
 .text.RCC_ClearITPendingBit
                0x00000000        0xc CMakeFiles/PWM.elf.dir/STM32F10x_FWLib/Src/stm32f10x_rcc.c.obj
 .text          0x00000000        0x0 CMakeFiles/PWM.elf.dir/STM32F10x_FWLib/Src/stm32f10x_rtc.c.obj
 .data          0x00000000        0x0 CMakeFiles/PWM.elf.dir/STM32F10x_FWLib/Src/stm32f10x_rtc.c.obj
 .bss           0x00000000        0x0 CMakeFiles/PWM.elf.dir/STM32F10x_FWLib/Src/stm32f10x_rtc.c.obj
 .text.RTC_SetAlarm
                0x00000000       0x1c CMakeFiles/PWM.elf.dir/STM32F10x_FWLib/Src/stm32f10x_rtc.c.obj
 .text.RTC_GetDivider
                0x00000000       0x18 CMakeFiles/PWM.elf.dir/STM32F10x_FWLib/Src/stm32f10x_rtc.c.obj
 .text.RTC_GetFlagStatus
                0x00000000       0x14 CMakeFiles/PWM.elf.dir/STM32F10x_FWLib/Src/stm32f10x_rtc.c.obj
 .text.RTC_ClearFlag
                0x00000000       0x14 CMakeFiles/PWM.elf.dir/STM32F10x_FWLib/Src/stm32f10x_rtc.c.obj
 .text          0x00000000        0x0 CMakeFiles/PWM.elf.dir/STM32F10x_FWLib/Src/stm32f10x_sdio.c.obj
 .data          0x00000000        0x0 CMakeFiles/PWM.elf.dir/STM32F10x_FWLib/Src/stm32f10x_sdio.c.obj
 .bss           0x00000000        0x0 CMakeFiles/PWM.elf.dir/STM32F10x_FWLib/Src/stm32f10x_sdio.c.obj
 .text.SDIO_DeInit
                0x00000000       0x24 CMakeFiles/PWM.elf.dir/STM32F10x_FWLib/Src/stm32f10x_sdio.c.obj
 .text.SDIO_Init
                0x00000000       0x30 CMakeFiles/PWM.elf.dir/STM32F10x_FWLib/Src/stm32f10x_sdio.c.obj
 .text.SDIO_StructInit
                0x00000000       0x10 CMakeFiles/PWM.elf.dir/STM32F10x_FWLib/Src/stm32f10x_sdio.c.obj
 .text.SDIO_ClockCmd
                0x00000000        0xc CMakeFiles/PWM.elf.dir/STM32F10x_FWLib/Src/stm32f10x_sdio.c.obj
 .text.SDIO_SetPowerState
                0x00000000        0xc CMakeFiles/PWM.elf.dir/STM32F10x_FWLib/Src/stm32f10x_sdio.c.obj
 .text.SDIO_GetPowerState
                0x00000000       0x10 CMakeFiles/PWM.elf.dir/STM32F10x_FWLib/Src/stm32f10x_sdio.c.obj
 .text.SDIO_ITConfig
                0x00000000       0x1c CMakeFiles/PWM.elf.dir/STM32F10x_FWLib/Src/stm32f10x_sdio.c.obj
 .text.SDIO_DMACmd
                0x00000000        0xc CMakeFiles/PWM.elf.dir/STM32F10x_FWLib/Src/stm32f10x_sdio.c.obj
 .text.SDIO_SendCommand
                0x00000000       0x2c CMakeFiles/PWM.elf.dir/STM32F10x_FWLib/Src/stm32f10x_sdio.c.obj
 .text.SDIO_CmdStructInit
                0x00000000       0x10 CMakeFiles/PWM.elf.dir/STM32F10x_FWLib/Src/stm32f10x_sdio.c.obj
 .text.SDIO_GetCommandResponse
                0x00000000        0xc CMakeFiles/PWM.elf.dir/STM32F10x_FWLib/Src/stm32f10x_sdio.c.obj
 .text.SDIO_GetResponse
                0x00000000       0x18 CMakeFiles/PWM.elf.dir/STM32F10x_FWLib/Src/stm32f10x_sdio.c.obj
 .text.SDIO_DataConfig
                0x00000000       0x2c CMakeFiles/PWM.elf.dir/STM32F10x_FWLib/Src/stm32f10x_sdio.c.obj
 .text.SDIO_DataStructInit
                0x00000000       0x14 CMakeFiles/PWM.elf.dir/STM32F10x_FWLib/Src/stm32f10x_sdio.c.obj
 .text.SDIO_GetDataCounter
                0x00000000        0xc CMakeFiles/PWM.elf.dir/STM32F10x_FWLib/Src/stm32f10x_sdio.c.obj
 .text.SDIO_ReadData
                0x00000000        0xc CMakeFiles/PWM.elf.dir/STM32F10x_FWLib/Src/stm32f10x_sdio.c.obj
 .text.SDIO_WriteData
                0x00000000        0xc CMakeFiles/PWM.elf.dir/STM32F10x_FWLib/Src/stm32f10x_sdio.c.obj
 .text.SDIO_GetFIFOCount
                0x00000000        0xc CMakeFiles/PWM.elf.dir/STM32F10x_FWLib/Src/stm32f10x_sdio.c.obj
 .text.SDIO_StartSDIOReadWait
                0x00000000        0xc CMakeFiles/PWM.elf.dir/STM32F10x_FWLib/Src/stm32f10x_sdio.c.obj
 .text.SDIO_StopSDIOReadWait
                0x00000000        0xc CMakeFiles/PWM.elf.dir/STM32F10x_FWLib/Src/stm32f10x_sdio.c.obj
 .text.SDIO_SetSDIOReadWaitMode
                0x00000000        0xc CMakeFiles/PWM.elf.dir/STM32F10x_FWLib/Src/stm32f10x_sdio.c.obj
 .text.SDIO_SetSDIOOperation
                0x00000000        0xc CMakeFiles/PWM.elf.dir/STM32F10x_FWLib/Src/stm32f10x_sdio.c.obj
 .text.SDIO_SendSDIOSuspendCmd
                0x00000000        0xc CMakeFiles/PWM.elf.dir/STM32F10x_FWLib/Src/stm32f10x_sdio.c.obj
 .text.SDIO_CommandCompletionCmd
                0x00000000        0xc CMakeFiles/PWM.elf.dir/STM32F10x_FWLib/Src/stm32f10x_sdio.c.obj
 .text.SDIO_CEATAITCmd
                0x00000000       0x14 CMakeFiles/PWM.elf.dir/STM32F10x_FWLib/Src/stm32f10x_sdio.c.obj
 .text.SDIO_SendCEATACmd
                0x00000000        0xc CMakeFiles/PWM.elf.dir/STM32F10x_FWLib/Src/stm32f10x_sdio.c.obj
 .text.SDIO_GetFlagStatus
                0x00000000       0x14 CMakeFiles/PWM.elf.dir/STM32F10x_FWLib/Src/stm32f10x_sdio.c.obj
 .text.SDIO_ClearFlag
                0x00000000        0xc CMakeFiles/PWM.elf.dir/STM32F10x_FWLib/Src/stm32f10x_sdio.c.obj
 .text.SDIO_GetITStatus
                0x00000000       0x14 CMakeFiles/PWM.elf.dir/STM32F10x_FWLib/Src/stm32f10x_sdio.c.obj
 .text.SDIO_ClearITPendingBit
                0x00000000        0xc CMakeFiles/PWM.elf.dir/STM32F10x_FWLib/Src/stm32f10x_sdio.c.obj
 .debug_info    0x00000000      0x7d1 CMakeFiles/PWM.elf.dir/STM32F10x_FWLib/Src/stm32f10x_sdio.c.obj
 .debug_abbrev  0x00000000      0x1c0 CMakeFiles/PWM.elf.dir/STM32F10x_FWLib/Src/stm32f10x_sdio.c.obj
 .debug_loc     0x00000000      0x1ac CMakeFiles/PWM.elf.dir/STM32F10x_FWLib/Src/stm32f10x_sdio.c.obj
 .debug_aranges
                0x00000000      0x108 CMakeFiles/PWM.elf.dir/STM32F10x_FWLib/Src/stm32f10x_sdio.c.obj
 .debug_ranges  0x00000000       0xf8 CMakeFiles/PWM.elf.dir/STM32F10x_FWLib/Src/stm32f10x_sdio.c.obj
 .debug_line    0x00000000      0x467 CMakeFiles/PWM.elf.dir/STM32F10x_FWLib/Src/stm32f10x_sdio.c.obj
 .debug_str     0x00000000      0x67c CMakeFiles/PWM.elf.dir/STM32F10x_FWLib/Src/stm32f10x_sdio.c.obj
 .comment       0x00000000       0x6f CMakeFiles/PWM.elf.dir/STM32F10x_FWLib/Src/stm32f10x_sdio.c.obj
 .debug_frame   0x00000000      0x21c CMakeFiles/PWM.elf.dir/STM32F10x_FWLib/Src/stm32f10x_sdio.c.obj
 .ARM.attributes
                0x00000000       0x33 CMakeFiles/PWM.elf.dir/STM32F10x_FWLib/Src/stm32f10x_sdio.c.obj
 .text          0x00000000        0x0 CMakeFiles/PWM.elf.dir/STM32F10x_FWLib/Src/stm32f10x_spi.c.obj
 .data          0x00000000        0x0 CMakeFiles/PWM.elf.dir/STM32F10x_FWLib/Src/stm32f10x_spi.c.obj
 .bss           0x00000000        0x0 CMakeFiles/PWM.elf.dir/STM32F10x_FWLib/Src/stm32f10x_spi.c.obj
 .text.SPI_I2S_DeInit
                0x00000000       0x64 CMakeFiles/PWM.elf.dir/STM32F10x_FWLib/Src/stm32f10x_spi.c.obj
 .text.I2S_Init
                0x00000000       0xb8 CMakeFiles/PWM.elf.dir/STM32F10x_FWLib/Src/stm32f10x_spi.c.obj
 .text.SPI_StructInit
                0x00000000       0x18 CMakeFiles/PWM.elf.dir/STM32F10x_FWLib/Src/stm32f10x_spi.c.obj
 .text.I2S_StructInit
                0x00000000       0x14 CMakeFiles/PWM.elf.dir/STM32F10x_FWLib/Src/stm32f10x_spi.c.obj
 .text.I2S_Cmd  0x00000000       0x1c CMakeFiles/PWM.elf.dir/STM32F10x_FWLib/Src/stm32f10x_spi.c.obj
 .text.SPI_I2S_ITConfig
                0x00000000       0x24 CMakeFiles/PWM.elf.dir/STM32F10x_FWLib/Src/stm32f10x_spi.c.obj
 .text.SPI_I2S_DMACmd
                0x00000000       0x18 CMakeFiles/PWM.elf.dir/STM32F10x_FWLib/Src/stm32f10x_spi.c.obj
 .text.SPI_NSSInternalSoftwareConfig
                0x00000000       0x24 CMakeFiles/PWM.elf.dir/STM32F10x_FWLib/Src/stm32f10x_spi.c.obj
 .text.SPI_SSOutputCmd
                0x00000000       0x1c CMakeFiles/PWM.elf.dir/STM32F10x_FWLib/Src/stm32f10x_spi.c.obj
 .text.SPI_DataSizeConfig
                0x00000000       0x18 CMakeFiles/PWM.elf.dir/STM32F10x_FWLib/Src/stm32f10x_spi.c.obj
 .text.SPI_TransmitCRC
                0x00000000        0xc CMakeFiles/PWM.elf.dir/STM32F10x_FWLib/Src/stm32f10x_spi.c.obj
 .text.SPI_CalculateCRC
                0x00000000       0x1c CMakeFiles/PWM.elf.dir/STM32F10x_FWLib/Src/stm32f10x_spi.c.obj
 .text.SPI_GetCRC
                0x00000000       0x10 CMakeFiles/PWM.elf.dir/STM32F10x_FWLib/Src/stm32f10x_spi.c.obj
 .text.SPI_GetCRCPolynomial
                0x00000000        0x8 CMakeFiles/PWM.elf.dir/STM32F10x_FWLib/Src/stm32f10x_spi.c.obj
 .text.SPI_BiDirectionalLineConfig
                0x00000000       0x20 CMakeFiles/PWM.elf.dir/STM32F10x_FWLib/Src/stm32f10x_spi.c.obj
 .text.SPI_I2S_ClearFlag
                0x00000000        0x8 CMakeFiles/PWM.elf.dir/STM32F10x_FWLib/Src/stm32f10x_spi.c.obj
 .text.SPI_I2S_GetITStatus
                0x00000000       0x30 CMakeFiles/PWM.elf.dir/STM32F10x_FWLib/Src/stm32f10x_spi.c.obj
 .text.SPI_I2S_ClearITPendingBit
                0x00000000       0x14 CMakeFiles/PWM.elf.dir/STM32F10x_FWLib/Src/stm32f10x_spi.c.obj
 .text          0x00000000        0x0 CMakeFiles/PWM.elf.dir/STM32F10x_FWLib/Src/stm32f10x_tim.c.obj
 .data          0x00000000        0x0 CMakeFiles/PWM.elf.dir/STM32F10x_FWLib/Src/stm32f10x_tim.c.obj
 .bss           0x00000000        0x0 CMakeFiles/PWM.elf.dir/STM32F10x_FWLib/Src/stm32f10x_tim.c.obj
 .text.TI1_Config
                0x00000000       0x74 CMakeFiles/PWM.elf.dir/STM32F10x_FWLib/Src/stm32f10x_tim.c.obj
 .text.TI2_Config
                0x00000000       0x7c CMakeFiles/PWM.elf.dir/STM32F10x_FWLib/Src/stm32f10x_tim.c.obj
 .text.TI3_Config
                0x00000000       0x78 CMakeFiles/PWM.elf.dir/STM32F10x_FWLib/Src/stm32f10x_tim.c.obj
 .text.TI4_Config
                0x00000000       0x80 CMakeFiles/PWM.elf.dir/STM32F10x_FWLib/Src/stm32f10x_tim.c.obj
 .text.TIM_DeInit
                0x00000000      0x200 CMakeFiles/PWM.elf.dir/STM32F10x_FWLib/Src/stm32f10x_tim.c.obj
 .text.TIM_OC1Init
                0x00000000       0x84 CMakeFiles/PWM.elf.dir/STM32F10x_FWLib/Src/stm32f10x_tim.c.obj
 .text.TIM_BDTRConfig
                0x00000000       0x2c CMakeFiles/PWM.elf.dir/STM32F10x_FWLib/Src/stm32f10x_tim.c.obj
 .text.TIM_TimeBaseStructInit
                0x00000000       0x14 CMakeFiles/PWM.elf.dir/STM32F10x_FWLib/Src/stm32f10x_tim.c.obj
 .text.TIM_OCStructInit
                0x00000000       0x14 CMakeFiles/PWM.elf.dir/STM32F10x_FWLib/Src/stm32f10x_tim.c.obj
 .text.TIM_ICStructInit
                0x00000000       0x10 CMakeFiles/PWM.elf.dir/STM32F10x_FWLib/Src/stm32f10x_tim.c.obj
 .text.TIM_BDTRStructInit
                0x00000000       0x14 CMakeFiles/PWM.elf.dir/STM32F10x_FWLib/Src/stm32f10x_tim.c.obj
 .text.TIM_CtrlPWMOutputs
                0x00000000       0x24 CMakeFiles/PWM.elf.dir/STM32F10x_FWLib/Src/stm32f10x_tim.c.obj
 .text.TIM_GenerateEvent
                0x00000000        0x4 CMakeFiles/PWM.elf.dir/STM32F10x_FWLib/Src/stm32f10x_tim.c.obj
 .text.TIM_DMAConfig
                0x00000000        0x8 CMakeFiles/PWM.elf.dir/STM32F10x_FWLib/Src/stm32f10x_tim.c.obj
 .text.TIM_DMACmd
                0x00000000       0x18 CMakeFiles/PWM.elf.dir/STM32F10x_FWLib/Src/stm32f10x_tim.c.obj
 .text.TIM_InternalClockConfig
                0x00000000       0x10 CMakeFiles/PWM.elf.dir/STM32F10x_FWLib/Src/stm32f10x_tim.c.obj
 .text.TIM_ETRConfig
                0x00000000       0x18 CMakeFiles/PWM.elf.dir/STM32F10x_FWLib/Src/stm32f10x_tim.c.obj
 .text.TIM_ETRClockMode1Config
                0x00000000       0x14 CMakeFiles/PWM.elf.dir/STM32F10x_FWLib/Src/stm32f10x_tim.c.obj
 .text.TIM_ETRClockMode2Config
                0x00000000       0x14 CMakeFiles/PWM.elf.dir/STM32F10x_FWLib/Src/stm32f10x_tim.c.obj
 .text.TIM_PrescalerConfig
                0x00000000        0x8 CMakeFiles/PWM.elf.dir/STM32F10x_FWLib/Src/stm32f10x_tim.c.obj
 .text.TIM_CounterModeConfig
                0x00000000       0x10 CMakeFiles/PWM.elf.dir/STM32F10x_FWLib/Src/stm32f10x_tim.c.obj
 .text.TIM_SelectInputTrigger
                0x00000000       0x10 CMakeFiles/PWM.elf.dir/STM32F10x_FWLib/Src/stm32f10x_tim.c.obj
 .text.TIM_ITRxExternalClockConfig
                0x00000000       0x14 CMakeFiles/PWM.elf.dir/STM32F10x_FWLib/Src/stm32f10x_tim.c.obj
 .text.TIM_TIxExternalClockConfig
                0x00000000       0x30 CMakeFiles/PWM.elf.dir/STM32F10x_FWLib/Src/stm32f10x_tim.c.obj
 .text.TIM_EncoderInterfaceConfig
                0x00000000       0x3c CMakeFiles/PWM.elf.dir/STM32F10x_FWLib/Src/stm32f10x_tim.c.obj
 .text.TIM_ForcedOC1Config
                0x00000000       0x10 CMakeFiles/PWM.elf.dir/STM32F10x_FWLib/Src/stm32f10x_tim.c.obj
 .text.TIM_ForcedOC2Config
                0x00000000       0x14 CMakeFiles/PWM.elf.dir/STM32F10x_FWLib/Src/stm32f10x_tim.c.obj
 .text.TIM_ForcedOC3Config
                0x00000000       0x10 CMakeFiles/PWM.elf.dir/STM32F10x_FWLib/Src/stm32f10x_tim.c.obj
 .text.TIM_ForcedOC4Config
                0x00000000       0x14 CMakeFiles/PWM.elf.dir/STM32F10x_FWLib/Src/stm32f10x_tim.c.obj
 .text.TIM_ARRPreloadConfig
                0x00000000       0x1c CMakeFiles/PWM.elf.dir/STM32F10x_FWLib/Src/stm32f10x_tim.c.obj
 .text.TIM_SelectCOM
                0x00000000       0x1c CMakeFiles/PWM.elf.dir/STM32F10x_FWLib/Src/stm32f10x_tim.c.obj
 .text.TIM_SelectCCDMA
                0x00000000       0x1c CMakeFiles/PWM.elf.dir/STM32F10x_FWLib/Src/stm32f10x_tim.c.obj
 .text.TIM_CCPreloadControl
                0x00000000       0x1c CMakeFiles/PWM.elf.dir/STM32F10x_FWLib/Src/stm32f10x_tim.c.obj
 .text.TIM_OC1PreloadConfig
                0x00000000       0x10 CMakeFiles/PWM.elf.dir/STM32F10x_FWLib/Src/stm32f10x_tim.c.obj
 .text.TIM_OC2PreloadConfig
                0x00000000       0x14 CMakeFiles/PWM.elf.dir/STM32F10x_FWLib/Src/stm32f10x_tim.c.obj
 .text.TIM_OC3PreloadConfig
                0x00000000       0x10 CMakeFiles/PWM.elf.dir/STM32F10x_FWLib/Src/stm32f10x_tim.c.obj
 .text.TIM_OC4PreloadConfig
                0x00000000       0x14 CMakeFiles/PWM.elf.dir/STM32F10x_FWLib/Src/stm32f10x_tim.c.obj
 .text.TIM_OC1FastConfig
                0x00000000       0x10 CMakeFiles/PWM.elf.dir/STM32F10x_FWLib/Src/stm32f10x_tim.c.obj
 .text.TIM_OC2FastConfig
                0x00000000       0x14 CMakeFiles/PWM.elf.dir/STM32F10x_FWLib/Src/stm32f10x_tim.c.obj
 .text.TIM_OC3FastConfig
                0x00000000       0x10 CMakeFiles/PWM.elf.dir/STM32F10x_FWLib/Src/stm32f10x_tim.c.obj
 .text.TIM_OC4FastConfig
                0x00000000       0x14 CMakeFiles/PWM.elf.dir/STM32F10x_FWLib/Src/stm32f10x_tim.c.obj
 .text.TIM_ClearOC1Ref
                0x00000000       0x10 CMakeFiles/PWM.elf.dir/STM32F10x_FWLib/Src/stm32f10x_tim.c.obj
 .text.TIM_ClearOC2Ref
                0x00000000       0x10 CMakeFiles/PWM.elf.dir/STM32F10x_FWLib/Src/stm32f10x_tim.c.obj
 .text.TIM_ClearOC3Ref
                0x00000000       0x10 CMakeFiles/PWM.elf.dir/STM32F10x_FWLib/Src/stm32f10x_tim.c.obj
 .text.TIM_ClearOC4Ref
                0x00000000       0x10 CMakeFiles/PWM.elf.dir/STM32F10x_FWLib/Src/stm32f10x_tim.c.obj
 .text.TIM_OC1PolarityConfig
                0x00000000       0x10 CMakeFiles/PWM.elf.dir/STM32F10x_FWLib/Src/stm32f10x_tim.c.obj
 .text.TIM_OC1NPolarityConfig
                0x00000000       0x10 CMakeFiles/PWM.elf.dir/STM32F10x_FWLib/Src/stm32f10x_tim.c.obj
 .text.TIM_OC2NPolarityConfig
                0x00000000       0x14 CMakeFiles/PWM.elf.dir/STM32F10x_FWLib/Src/stm32f10x_tim.c.obj
 .text.TIM_OC3NPolarityConfig
                0x00000000       0x14 CMakeFiles/PWM.elf.dir/STM32F10x_FWLib/Src/stm32f10x_tim.c.obj
 .text.TIM_CCxCmd
                0x00000000       0x24 CMakeFiles/PWM.elf.dir/STM32F10x_FWLib/Src/stm32f10x_tim.c.obj
 .text.TIM_CCxNCmd
                0x00000000       0x24 CMakeFiles/PWM.elf.dir/STM32F10x_FWLib/Src/stm32f10x_tim.c.obj
 .text.TIM_SelectOCxM
                0x00000000       0x4c CMakeFiles/PWM.elf.dir/STM32F10x_FWLib/Src/stm32f10x_tim.c.obj
 .text.TIM_UpdateDisableConfig
                0x00000000       0x1c CMakeFiles/PWM.elf.dir/STM32F10x_FWLib/Src/stm32f10x_tim.c.obj
 .text.TIM_UpdateRequestConfig
                0x00000000       0x1c CMakeFiles/PWM.elf.dir/STM32F10x_FWLib/Src/stm32f10x_tim.c.obj
 .text.TIM_SelectHallSensor
                0x00000000       0x1c CMakeFiles/PWM.elf.dir/STM32F10x_FWLib/Src/stm32f10x_tim.c.obj
 .text.TIM_SelectOnePulseMode
                0x00000000       0x18 CMakeFiles/PWM.elf.dir/STM32F10x_FWLib/Src/stm32f10x_tim.c.obj
 .text.TIM_SelectOutputTrigger
                0x00000000       0x18 CMakeFiles/PWM.elf.dir/STM32F10x_FWLib/Src/stm32f10x_tim.c.obj
 .text.TIM_SelectSlaveMode
                0x00000000       0x18 CMakeFiles/PWM.elf.dir/STM32F10x_FWLib/Src/stm32f10x_tim.c.obj
 .text.TIM_SelectMasterSlaveMode
                0x00000000       0x18 CMakeFiles/PWM.elf.dir/STM32F10x_FWLib/Src/stm32f10x_tim.c.obj
 .text.TIM_SetCounter
                0x00000000        0x4 CMakeFiles/PWM.elf.dir/STM32F10x_FWLib/Src/stm32f10x_tim.c.obj
 .text.TIM_SetAutoreload
                0x00000000        0x4 CMakeFiles/PWM.elf.dir/STM32F10x_FWLib/Src/stm32f10x_tim.c.obj
 .text.TIM_SetCompare1
                0x00000000        0x4 CMakeFiles/PWM.elf.dir/STM32F10x_FWLib/Src/stm32f10x_tim.c.obj
 .text.TIM_SetIC1Prescaler
                0x00000000       0x18 CMakeFiles/PWM.elf.dir/STM32F10x_FWLib/Src/stm32f10x_tim.c.obj
 .text.TIM_SetIC2Prescaler
                0x00000000       0x1c CMakeFiles/PWM.elf.dir/STM32F10x_FWLib/Src/stm32f10x_tim.c.obj
 .text.TIM_PWMIConfig
                0x00000000       0x6c CMakeFiles/PWM.elf.dir/STM32F10x_FWLib/Src/stm32f10x_tim.c.obj
 .text.TIM_SetIC3Prescaler
                0x00000000       0x18 CMakeFiles/PWM.elf.dir/STM32F10x_FWLib/Src/stm32f10x_tim.c.obj
 .text.TIM_SetIC4Prescaler
                0x00000000       0x1c CMakeFiles/PWM.elf.dir/STM32F10x_FWLib/Src/stm32f10x_tim.c.obj
 .text.TIM_ICInit
                0x00000000       0x64 CMakeFiles/PWM.elf.dir/STM32F10x_FWLib/Src/stm32f10x_tim.c.obj
 .text.TIM_SetClockDivision
                0x00000000       0x18 CMakeFiles/PWM.elf.dir/STM32F10x_FWLib/Src/stm32f10x_tim.c.obj
 .text.TIM_GetCapture1
                0x00000000        0x8 CMakeFiles/PWM.elf.dir/STM32F10x_FWLib/Src/stm32f10x_tim.c.obj
 .text.TIM_GetCapture2
                0x00000000        0x8 CMakeFiles/PWM.elf.dir/STM32F10x_FWLib/Src/stm32f10x_tim.c.obj
 .text.TIM_GetCapture3
                0x00000000        0x8 CMakeFiles/PWM.elf.dir/STM32F10x_FWLib/Src/stm32f10x_tim.c.obj
 .text.TIM_GetCapture4
                0x00000000        0x8 CMakeFiles/PWM.elf.dir/STM32F10x_FWLib/Src/stm32f10x_tim.c.obj
 .text.TIM_GetCounter
                0x00000000        0x8 CMakeFiles/PWM.elf.dir/STM32F10x_FWLib/Src/stm32f10x_tim.c.obj
 .text.TIM_GetPrescaler
                0x00000000        0x8 CMakeFiles/PWM.elf.dir/STM32F10x_FWLib/Src/stm32f10x_tim.c.obj
 .text.TIM_GetFlagStatus
                0x00000000       0x10 CMakeFiles/PWM.elf.dir/STM32F10x_FWLib/Src/stm32f10x_tim.c.obj
 .text.TIM_ClearFlag
                0x00000000        0x8 CMakeFiles/PWM.elf.dir/STM32F10x_FWLib/Src/stm32f10x_tim.c.obj
 .text          0x00000000        0x0 CMakeFiles/PWM.elf.dir/STM32F10x_FWLib/Src/stm32f10x_usart.c.obj
 .data          0x00000000        0x0 CMakeFiles/PWM.elf.dir/STM32F10x_FWLib/Src/stm32f10x_usart.c.obj
 .bss           0x00000000        0x0 CMakeFiles/PWM.elf.dir/STM32F10x_FWLib/Src/stm32f10x_usart.c.obj
 .text.USART_DeInit
                0x00000000       0xa4 CMakeFiles/PWM.elf.dir/STM32F10x_FWLib/Src/stm32f10x_usart.c.obj
 .text.USART_StructInit
                0x00000000       0x18 CMakeFiles/PWM.elf.dir/STM32F10x_FWLib/Src/stm32f10x_usart.c.obj
 .text.USART_ClockInit
                0x00000000       0x24 CMakeFiles/PWM.elf.dir/STM32F10x_FWLib/Src/stm32f10x_usart.c.obj
 .text.USART_ClockStructInit
                0x00000000        0xc CMakeFiles/PWM.elf.dir/STM32F10x_FWLib/Src/stm32f10x_usart.c.obj
 .text.USART_DMACmd
                0x00000000       0x18 CMakeFiles/PWM.elf.dir/STM32F10x_FWLib/Src/stm32f10x_usart.c.obj
 .text.USART_SetAddress
                0x00000000       0x18 CMakeFiles/PWM.elf.dir/STM32F10x_FWLib/Src/stm32f10x_usart.c.obj
 .text.USART_WakeUpConfig
                0x00000000       0x18 CMakeFiles/PWM.elf.dir/STM32F10x_FWLib/Src/stm32f10x_usart.c.obj
 .text.USART_ReceiverWakeUpCmd
                0x00000000       0x1c CMakeFiles/PWM.elf.dir/STM32F10x_FWLib/Src/stm32f10x_usart.c.obj
 .text.USART_LINBreakDetectLengthConfig
                0x00000000       0x18 CMakeFiles/PWM.elf.dir/STM32F10x_FWLib/Src/stm32f10x_usart.c.obj
 .text.USART_LINCmd
                0x00000000       0x1c CMakeFiles/PWM.elf.dir/STM32F10x_FWLib/Src/stm32f10x_usart.c.obj
 .text.USART_SendBreak
                0x00000000        0xc CMakeFiles/PWM.elf.dir/STM32F10x_FWLib/Src/stm32f10x_usart.c.obj
 .text.USART_SetGuardTime
                0x00000000       0x14 CMakeFiles/PWM.elf.dir/STM32F10x_FWLib/Src/stm32f10x_usart.c.obj
 .text.USART_SetPrescaler
                0x00000000       0x14 CMakeFiles/PWM.elf.dir/STM32F10x_FWLib/Src/stm32f10x_usart.c.obj
 .text.USART_SmartCardCmd
                0x00000000       0x1c CMakeFiles/PWM.elf.dir/STM32F10x_FWLib/Src/stm32f10x_usart.c.obj
 .text.USART_SmartCardNACKCmd
                0x00000000       0x1c CMakeFiles/PWM.elf.dir/STM32F10x_FWLib/Src/stm32f10x_usart.c.obj
 .text.USART_HalfDuplexCmd
                0x00000000       0x1c CMakeFiles/PWM.elf.dir/STM32F10x_FWLib/Src/stm32f10x_usart.c.obj
 .text.USART_OverSampling8Cmd
                0x00000000       0x1c CMakeFiles/PWM.elf.dir/STM32F10x_FWLib/Src/stm32f10x_usart.c.obj
 .text.USART_OneBitMethodCmd
                0x00000000       0x1c CMakeFiles/PWM.elf.dir/STM32F10x_FWLib/Src/stm32f10x_usart.c.obj
 .text.USART_IrDAConfig
                0x00000000       0x18 CMakeFiles/PWM.elf.dir/STM32F10x_FWLib/Src/stm32f10x_usart.c.obj
 .text.USART_IrDACmd
                0x00000000       0x1c CMakeFiles/PWM.elf.dir/STM32F10x_FWLib/Src/stm32f10x_usart.c.obj
 .text.USART_ClearFlag
                0x00000000        0x8 CMakeFiles/PWM.elf.dir/STM32F10x_FWLib/Src/stm32f10x_usart.c.obj
 .text.USART_GetITStatus
                0x00000000       0x4c CMakeFiles/PWM.elf.dir/STM32F10x_FWLib/Src/stm32f10x_usart.c.obj
 .text.USART_ClearITPendingBit
                0x00000000       0x10 CMakeFiles/PWM.elf.dir/STM32F10x_FWLib/Src/stm32f10x_usart.c.obj
 .text          0x00000000        0x0 CMakeFiles/PWM.elf.dir/STM32F10x_FWLib/Src/stm32f10x_wwdg.c.obj
 .data          0x00000000        0x0 CMakeFiles/PWM.elf.dir/STM32F10x_FWLib/Src/stm32f10x_wwdg.c.obj
 .bss           0x00000000        0x0 CMakeFiles/PWM.elf.dir/STM32F10x_FWLib/Src/stm32f10x_wwdg.c.obj
 .text.WWDG_DeInit
                0x00000000       0x18 CMakeFiles/PWM.elf.dir/STM32F10x_FWLib/Src/stm32f10x_wwdg.c.obj
 .text.WWDG_SetPrescaler
                0x00000000       0x14 CMakeFiles/PWM.elf.dir/STM32F10x_FWLib/Src/stm32f10x_wwdg.c.obj
 .text.WWDG_SetWindowValue
                0x00000000       0x28 CMakeFiles/PWM.elf.dir/STM32F10x_FWLib/Src/stm32f10x_wwdg.c.obj
 .text.WWDG_EnableIT
                0x00000000        0xc CMakeFiles/PWM.elf.dir/STM32F10x_FWLib/Src/stm32f10x_wwdg.c.obj
 .text.WWDG_SetCounter
                0x00000000       0x10 CMakeFiles/PWM.elf.dir/STM32F10x_FWLib/Src/stm32f10x_wwdg.c.obj
 .text.WWDG_Enable
                0x00000000       0x10 CMakeFiles/PWM.elf.dir/STM32F10x_FWLib/Src/stm32f10x_wwdg.c.obj
 .text.WWDG_GetFlagStatus
                0x00000000        0xc CMakeFiles/PWM.elf.dir/STM32F10x_FWLib/Src/stm32f10x_wwdg.c.obj
 .text.WWDG_ClearFlag
                0x00000000        0xc CMakeFiles/PWM.elf.dir/STM32F10x_FWLib/Src/stm32f10x_wwdg.c.obj
 .debug_info    0x00000000      0x266 CMakeFiles/PWM.elf.dir/STM32F10x_FWLib/Src/stm32f10x_wwdg.c.obj
 .debug_abbrev  0x00000000      0x145 CMakeFiles/PWM.elf.dir/STM32F10x_FWLib/Src/stm32f10x_wwdg.c.obj
 .debug_loc     0x00000000       0xae CMakeFiles/PWM.elf.dir/STM32F10x_FWLib/Src/stm32f10x_wwdg.c.obj
 .debug_aranges
                0x00000000       0x58 CMakeFiles/PWM.elf.dir/STM32F10x_FWLib/Src/stm32f10x_wwdg.c.obj
 .debug_ranges  0x00000000       0x48 CMakeFiles/PWM.elf.dir/STM32F10x_FWLib/Src/stm32f10x_wwdg.c.obj
 .debug_line    0x00000000      0x2b2 CMakeFiles/PWM.elf.dir/STM32F10x_FWLib/Src/stm32f10x_wwdg.c.obj
 .debug_str     0x00000000      0x2c0 CMakeFiles/PWM.elf.dir/STM32F10x_FWLib/Src/stm32f10x_wwdg.c.obj
 .comment       0x00000000       0x6f CMakeFiles/PWM.elf.dir/STM32F10x_FWLib/Src/stm32f10x_wwdg.c.obj
 .debug_frame   0x00000000       0xa0 CMakeFiles/PWM.elf.dir/STM32F10x_FWLib/Src/stm32f10x_wwdg.c.obj
 .ARM.attributes
                0x00000000       0x33 CMakeFiles/PWM.elf.dir/STM32F10x_FWLib/Src/stm32f10x_wwdg.c.obj
 .text          0x00000000        0x0 CMakeFiles/PWM.elf.dir/SYSTEM/Src/delay.c.obj
 .data          0x00000000        0x0 CMakeFiles/PWM.elf.dir/SYSTEM/Src/delay.c.obj
 .bss           0x00000000        0x0 CMakeFiles/PWM.elf.dir/SYSTEM/Src/delay.c.obj
 .text          0x00000000        0x0 CMakeFiles/PWM.elf.dir/SYSTEM/Src/sys.c.obj
 .data          0x00000000        0x0 CMakeFiles/PWM.elf.dir/SYSTEM/Src/sys.c.obj
 .bss           0x00000000        0x0 CMakeFiles/PWM.elf.dir/SYSTEM/Src/sys.c.obj
 .text.WFI_SET  0x00000000        0x4 CMakeFiles/PWM.elf.dir/SYSTEM/Src/sys.c.obj
 .text.INTX_DISABLE
                0x00000000        0x4 CMakeFiles/PWM.elf.dir/SYSTEM/Src/sys.c.obj
 .text.INTX_ENABLE
                0x00000000        0x4 CMakeFiles/PWM.elf.dir/SYSTEM/Src/sys.c.obj
 .debug_info    0x00000000       0xb3 CMakeFiles/PWM.elf.dir/SYSTEM/Src/sys.c.obj
 .debug_abbrev  0x00000000       0x58 CMakeFiles/PWM.elf.dir/SYSTEM/Src/sys.c.obj
 .debug_aranges
                0x00000000       0x30 CMakeFiles/PWM.elf.dir/SYSTEM/Src/sys.c.obj
 .debug_ranges  0x00000000       0x20 CMakeFiles/PWM.elf.dir/SYSTEM/Src/sys.c.obj
 .debug_line    0x00000000       0xd4 CMakeFiles/PWM.elf.dir/SYSTEM/Src/sys.c.obj
 .debug_str     0x00000000      0x1bb CMakeFiles/PWM.elf.dir/SYSTEM/Src/sys.c.obj
 .comment       0x00000000       0x6f CMakeFiles/PWM.elf.dir/SYSTEM/Src/sys.c.obj
 .debug_frame   0x00000000       0x40 CMakeFiles/PWM.elf.dir/SYSTEM/Src/sys.c.obj
 .ARM.attributes
                0x00000000       0x33 CMakeFiles/PWM.elf.dir/SYSTEM/Src/sys.c.obj
 .text          0x00000000        0x0 CMakeFiles/PWM.elf.dir/SYSTEM/Src/usart.c.obj
 .data          0x00000000        0x0 CMakeFiles/PWM.elf.dir/SYSTEM/Src/usart.c.obj
 .bss           0x00000000        0x0 CMakeFiles/PWM.elf.dir/SYSTEM/Src/usart.c.obj
 .text          0x00000000       0x14 CMakeFiles/PWM.elf.dir/Startup/startup_stm32f103rbtx.s.obj
 .data          0x00000000        0x0 CMakeFiles/PWM.elf.dir/Startup/startup_stm32f103rbtx.s.obj
 .bss           0x00000000        0x0 CMakeFiles/PWM.elf.dir/Startup/startup_stm32f103rbtx.s.obj
 .text          0x00000000        0x0 CMakeFiles/PWM.elf.dir/USER/Src/main.c.obj
 .data          0x00000000        0x0 CMakeFiles/PWM.elf.dir/USER/Src/main.c.obj
 .bss           0x00000000        0x0 CMakeFiles/PWM.elf.dir/USER/Src/main.c.obj
 .text          0x00000000        0x0 CMakeFiles/PWM.elf.dir/USER/Src/stm32f10x_it.c.obj
 .data          0x00000000        0x0 CMakeFiles/PWM.elf.dir/USER/Src/stm32f10x_it.c.obj
 .bss           0x00000000        0x0 CMakeFiles/PWM.elf.dir/USER/Src/stm32f10x_it.c.obj
 .text          0x00000000        0x0 CMakeFiles/PWM.elf.dir/USER/Src/system_stm32f10x.c.obj
 .data          0x00000000        0x0 CMakeFiles/PWM.elf.dir/USER/Src/system_stm32f10x.c.obj
 .bss           0x00000000        0x0 CMakeFiles/PWM.elf.dir/USER/Src/system_stm32f10x.c.obj
 .text.SystemCoreClockUpdate
                0x00000000       0x94 CMakeFiles/PWM.elf.dir/USER/Src/system_stm32f10x.c.obj
 .data.AHBPrescTable
                0x00000000       0x10 CMakeFiles/PWM.elf.dir/USER/Src/system_stm32f10x.c.obj
 .data          0x00000000        0x0 d:/program files (x86)/gnu tools arm embedded/5.4 2016q3/bin/../lib/gcc/arm-none-eabi/5.4.1/armv7-m\libgcc.a(_arm_addsubdf3.o)
 .bss           0x00000000        0x0 d:/program files (x86)/gnu tools arm embedded/5.4 2016q3/bin/../lib/gcc/arm-none-eabi/5.4.1/armv7-m\libgcc.a(_arm_addsubdf3.o)
 .data          0x00000000        0x0 d:/program files (x86)/gnu tools arm embedded/5.4 2016q3/bin/../lib/gcc/arm-none-eabi/5.4.1/armv7-m\libgcc.a(_arm_muldivdf3.o)
 .bss           0x00000000        0x0 d:/program files (x86)/gnu tools arm embedded/5.4 2016q3/bin/../lib/gcc/arm-none-eabi/5.4.1/armv7-m\libgcc.a(_arm_muldivdf3.o)
 .data          0x00000000        0x0 d:/program files (x86)/gnu tools arm embedded/5.4 2016q3/bin/../lib/gcc/arm-none-eabi/5.4.1/armv7-m\libgcc.a(_arm_truncdfsf2.o)
 .bss           0x00000000        0x0 d:/program files (x86)/gnu tools arm embedded/5.4 2016q3/bin/../lib/gcc/arm-none-eabi/5.4.1/armv7-m\libgcc.a(_arm_truncdfsf2.o)
 .data          0x00000000        0x0 d:/program files (x86)/gnu tools arm embedded/5.4 2016q3/bin/../lib/gcc/arm-none-eabi/5.4.1/armv7-m\libgcc.a(_arm_addsubsf3.o)
 .bss           0x00000000        0x0 d:/program files (x86)/gnu tools arm embedded/5.4 2016q3/bin/../lib/gcc/arm-none-eabi/5.4.1/armv7-m\libgcc.a(_arm_addsubsf3.o)
 .data          0x00000000        0x0 d:/program files (x86)/gnu tools arm embedded/5.4 2016q3/bin/../lib/gcc/arm-none-eabi/5.4.1/armv7-m\libgcc.a(_arm_muldivsf3.o)
 .bss           0x00000000        0x0 d:/program files (x86)/gnu tools arm embedded/5.4 2016q3/bin/../lib/gcc/arm-none-eabi/5.4.1/armv7-m\libgcc.a(_arm_muldivsf3.o)
 .data          0x00000000        0x0 d:/program files (x86)/gnu tools arm embedded/5.4 2016q3/bin/../lib/gcc/arm-none-eabi/5.4.1/armv7-m\libgcc.a(_arm_fixunssfsi.o)
 .bss           0x00000000        0x0 d:/program files (x86)/gnu tools arm embedded/5.4 2016q3/bin/../lib/gcc/arm-none-eabi/5.4.1/armv7-m\libgcc.a(_arm_fixunssfsi.o)
 .text          0x00000000        0x0 d:/program files (x86)/gnu tools arm embedded/5.4 2016q3/bin/../lib/gcc/arm-none-eabi/5.4.1/../../../../arm-none-eabi/lib/armv7-m\libg_nano.a(lib_a-exit.o)
 .data          0x00000000        0x0 d:/program files (x86)/gnu tools arm embedded/5.4 2016q3/bin/../lib/gcc/arm-none-eabi/5.4.1/../../../../arm-none-eabi/lib/armv7-m\libg_nano.a(lib_a-exit.o)
 .bss           0x00000000        0x0 d:/program files (x86)/gnu tools arm embedded/5.4 2016q3/bin/../lib/gcc/arm-none-eabi/5.4.1/../../../../arm-none-eabi/lib/armv7-m\libg_nano.a(lib_a-exit.o)
 .text.exit     0x00000000       0x28 d:/program files (x86)/gnu tools arm embedded/5.4 2016q3/bin/../lib/gcc/arm-none-eabi/5.4.1/../../../../arm-none-eabi/lib/armv7-m\libg_nano.a(lib_a-exit.o)
 .debug_frame   0x00000000       0x28 d:/program files (x86)/gnu tools arm embedded/5.4 2016q3/bin/../lib/gcc/arm-none-eabi/5.4.1/../../../../arm-none-eabi/lib/armv7-m\libg_nano.a(lib_a-exit.o)
 .ARM.attributes
                0x00000000       0x2d d:/program files (x86)/gnu tools arm embedded/5.4 2016q3/bin/../lib/gcc/arm-none-eabi/5.4.1/../../../../arm-none-eabi/lib/armv7-m\libg_nano.a(lib_a-exit.o)
 .text          0x00000000        0x0 d:/program files (x86)/gnu tools arm embedded/5.4 2016q3/bin/../lib/gcc/arm-none-eabi/5.4.1/../../../../arm-none-eabi/lib/armv7-m\libg_nano.a(lib_a-impure.o)
 .data          0x00000000        0x0 d:/program files (x86)/gnu tools arm embedded/5.4 2016q3/bin/../lib/gcc/arm-none-eabi/5.4.1/../../../../arm-none-eabi/lib/armv7-m\libg_nano.a(lib_a-impure.o)
 .bss           0x00000000        0x0 d:/program files (x86)/gnu tools arm embedded/5.4 2016q3/bin/../lib/gcc/arm-none-eabi/5.4.1/../../../../arm-none-eabi/lib/armv7-m\libg_nano.a(lib_a-impure.o)
 .text          0x00000000        0x0 d:/program files (x86)/gnu tools arm embedded/5.4 2016q3/bin/../lib/gcc/arm-none-eabi/5.4.1/../../../../arm-none-eabi/lib/armv7-m\libg_nano.a(lib_a-init.o)
 .data          0x00000000        0x0 d:/program files (x86)/gnu tools arm embedded/5.4 2016q3/bin/../lib/gcc/arm-none-eabi/5.4.1/../../../../arm-none-eabi/lib/armv7-m\libg_nano.a(lib_a-init.o)
 .bss           0x00000000        0x0 d:/program files (x86)/gnu tools arm embedded/5.4 2016q3/bin/../lib/gcc/arm-none-eabi/5.4.1/../../../../arm-none-eabi/lib/armv7-m\libg_nano.a(lib_a-init.o)
 .text          0x00000000        0x0 d:/program files (x86)/gnu tools arm embedded/5.4 2016q3/bin/../lib/gcc/arm-none-eabi/5.4.1/../../../../arm-none-eabi/lib/armv7-m\libg_nano.a(lib_a-memset.o)
 .data          0x00000000        0x0 d:/program files (x86)/gnu tools arm embedded/5.4 2016q3/bin/../lib/gcc/arm-none-eabi/5.4.1/../../../../arm-none-eabi/lib/armv7-m\libg_nano.a(lib_a-memset.o)
 .bss           0x00000000        0x0 d:/program files (x86)/gnu tools arm embedded/5.4 2016q3/bin/../lib/gcc/arm-none-eabi/5.4.1/../../../../arm-none-eabi/lib/armv7-m\libg_nano.a(lib_a-memset.o)
 .text          0x00000000        0x0 d:/program files (x86)/gnu tools arm embedded/5.4 2016q3/bin/../lib/gcc/arm-none-eabi/5.4.1/../../../../arm-none-eabi/lib/armv7-m\libg_nano.a(lib_a-nano-vfprintf_float.o)
 .data          0x00000000        0x0 d:/program files (x86)/gnu tools arm embedded/5.4 2016q3/bin/../lib/gcc/arm-none-eabi/5.4.1/../../../../arm-none-eabi/lib/armv7-m\libg_nano.a(lib_a-nano-vfprintf_float.o)
 .bss           0x00000000        0x0 d:/program files (x86)/gnu tools arm embedded/5.4 2016q3/bin/../lib/gcc/arm-none-eabi/5.4.1/../../../../arm-none-eabi/lib/armv7-m\libg_nano.a(lib_a-nano-vfprintf_float.o)
 .text          0x00000000        0x0 d:/program files (x86)/gnu tools arm embedded/5.4 2016q3/bin/../lib/gcc/arm-none-eabi/5.4.1/../../../../arm-none-eabi/lib/armv7-m\libg_nano.a(lib_a-nano-vfprintf_i.o)
 .data          0x00000000        0x0 d:/program files (x86)/gnu tools arm embedded/5.4 2016q3/bin/../lib/gcc/arm-none-eabi/5.4.1/../../../../arm-none-eabi/lib/armv7-m\libg_nano.a(lib_a-nano-vfprintf_i.o)
 .bss           0x00000000        0x0 d:/program files (x86)/gnu tools arm embedded/5.4 2016q3/bin/../lib/gcc/arm-none-eabi/5.4.1/../../../../arm-none-eabi/lib/armv7-m\libg_nano.a(lib_a-nano-vfprintf_i.o)
 .text          0x00000000        0x0 d:/program files (x86)/gnu tools arm embedded/5.4 2016q3/bin/../lib/gcc/arm-none-eabi/5.4.1/../../../../arm-none-eabi/lib/armv7-m\libg_nano.a(lib_a-printf.o)
 .data          0x00000000        0x0 d:/program files (x86)/gnu tools arm embedded/5.4 2016q3/bin/../lib/gcc/arm-none-eabi/5.4.1/../../../../arm-none-eabi/lib/armv7-m\libg_nano.a(lib_a-printf.o)
 .bss           0x00000000        0x0 d:/program files (x86)/gnu tools arm embedded/5.4 2016q3/bin/../lib/gcc/arm-none-eabi/5.4.1/../../../../arm-none-eabi/lib/armv7-m\libg_nano.a(lib_a-printf.o)
 .text._printf_r
                0x00000000       0x28 d:/program files (x86)/gnu tools arm embedded/5.4 2016q3/bin/../lib/gcc/arm-none-eabi/5.4.1/../../../../arm-none-eabi/lib/armv7-m\libg_nano.a(lib_a-printf.o)
 .text          0x00000000        0x0 d:/program files (x86)/gnu tools arm embedded/5.4 2016q3/bin/../lib/gcc/arm-none-eabi/5.4.1/../../../../arm-none-eabi/lib/armv7-m\libg_nano.a(lib_a-puts.o)
 .data          0x00000000        0x0 d:/program files (x86)/gnu tools arm embedded/5.4 2016q3/bin/../lib/gcc/arm-none-eabi/5.4.1/../../../../arm-none-eabi/lib/armv7-m\libg_nano.a(lib_a-puts.o)
 .bss           0x00000000        0x0 d:/program files (x86)/gnu tools arm embedded/5.4 2016q3/bin/../lib/gcc/arm-none-eabi/5.4.1/../../../../arm-none-eabi/lib/armv7-m\libg_nano.a(lib_a-puts.o)
 .text          0x00000000        0x0 d:/program files (x86)/gnu tools arm embedded/5.4 2016q3/bin/../lib/gcc/arm-none-eabi/5.4.1/../../../../arm-none-eabi/lib/armv7-m\libg_nano.a(lib_a-setvbuf.o)
 .data          0x00000000        0x0 d:/program files (x86)/gnu tools arm embedded/5.4 2016q3/bin/../lib/gcc/arm-none-eabi/5.4.1/../../../../arm-none-eabi/lib/armv7-m\libg_nano.a(lib_a-setvbuf.o)
 .bss           0x00000000        0x0 d:/program files (x86)/gnu tools arm embedded/5.4 2016q3/bin/../lib/gcc/arm-none-eabi/5.4.1/../../../../arm-none-eabi/lib/armv7-m\libg_nano.a(lib_a-setvbuf.o)
 .data          0x00000000        0x0 d:/program files (x86)/gnu tools arm embedded/5.4 2016q3/bin/../lib/gcc/arm-none-eabi/5.4.1/../../../../arm-none-eabi/lib/armv7-m\libg_nano.a(lib_a-strlen.o)
 .bss           0x00000000        0x0 d:/program files (x86)/gnu tools arm embedded/5.4 2016q3/bin/../lib/gcc/arm-none-eabi/5.4.1/../../../../arm-none-eabi/lib/armv7-m\libg_nano.a(lib_a-strlen.o)
 .text          0x00000000        0x0 d:/program files (x86)/gnu tools arm embedded/5.4 2016q3/bin/../lib/gcc/arm-none-eabi/5.4.1/../../../../arm-none-eabi/lib/armv7-m\libg_nano.a(lib_a-wbuf.o)
 .data          0x00000000        0x0 d:/program files (x86)/gnu tools arm embedded/5.4 2016q3/bin/../lib/gcc/arm-none-eabi/5.4.1/../../../../arm-none-eabi/lib/armv7-m\libg_nano.a(lib_a-wbuf.o)
 .bss           0x00000000        0x0 d:/program files (x86)/gnu tools arm embedded/5.4 2016q3/bin/../lib/gcc/arm-none-eabi/5.4.1/../../../../arm-none-eabi/lib/armv7-m\libg_nano.a(lib_a-wbuf.o)
 .text.__swbuf  0x00000000       0x10 d:/program files (x86)/gnu tools arm embedded/5.4 2016q3/bin/../lib/gcc/arm-none-eabi/5.4.1/../../../../arm-none-eabi/lib/armv7-m\libg_nano.a(lib_a-wbuf.o)
 .text          0x00000000        0x0 d:/program files (x86)/gnu tools arm embedded/5.4 2016q3/bin/../lib/gcc/arm-none-eabi/5.4.1/../../../../arm-none-eabi/lib/armv7-m\libg_nano.a(lib_a-wsetup.o)
 .data          0x00000000        0x0 d:/program files (x86)/gnu tools arm embedded/5.4 2016q3/bin/../lib/gcc/arm-none-eabi/5.4.1/../../../../arm-none-eabi/lib/armv7-m\libg_nano.a(lib_a-wsetup.o)
 .bss           0x00000000        0x0 d:/program files (x86)/gnu tools arm embedded/5.4 2016q3/bin/../lib/gcc/arm-none-eabi/5.4.1/../../../../arm-none-eabi/lib/armv7-m\libg_nano.a(lib_a-wsetup.o)
 .text          0x00000000        0x0 d:/program files (x86)/gnu tools arm embedded/5.4 2016q3/bin/../lib/gcc/arm-none-eabi/5.4.1/../../../../arm-none-eabi/lib/armv7-m\libg_nano.a(lib_a-dtoa.o)
 .data          0x00000000        0x0 d:/program files (x86)/gnu tools arm embedded/5.4 2016q3/bin/../lib/gcc/arm-none-eabi/5.4.1/../../../../arm-none-eabi/lib/armv7-m\libg_nano.a(lib_a-dtoa.o)
 .bss           0x00000000        0x0 d:/program files (x86)/gnu tools arm embedded/5.4 2016q3/bin/../lib/gcc/arm-none-eabi/5.4.1/../../../../arm-none-eabi/lib/armv7-m\libg_nano.a(lib_a-dtoa.o)
 .text          0x00000000        0x0 d:/program files (x86)/gnu tools arm embedded/5.4 2016q3/bin/../lib/gcc/arm-none-eabi/5.4.1/../../../../arm-none-eabi/lib/armv7-m\libg_nano.a(lib_a-fflush.o)
 .data          0x00000000        0x0 d:/program files (x86)/gnu tools arm embedded/5.4 2016q3/bin/../lib/gcc/arm-none-eabi/5.4.1/../../../../arm-none-eabi/lib/armv7-m\libg_nano.a(lib_a-fflush.o)
 .bss           0x00000000        0x0 d:/program files (x86)/gnu tools arm embedded/5.4 2016q3/bin/../lib/gcc/arm-none-eabi/5.4.1/../../../../arm-none-eabi/lib/armv7-m\libg_nano.a(lib_a-fflush.o)
 .text.fflush   0x00000000       0x24 d:/program files (x86)/gnu tools arm embedded/5.4 2016q3/bin/../lib/gcc/arm-none-eabi/5.4.1/../../../../arm-none-eabi/lib/armv7-m\libg_nano.a(lib_a-fflush.o)
 .text          0x00000000        0x0 d:/program files (x86)/gnu tools arm embedded/5.4 2016q3/bin/../lib/gcc/arm-none-eabi/5.4.1/../../../../arm-none-eabi/lib/armv7-m\libg_nano.a(lib_a-findfp.o)
 .data          0x00000000        0x0 d:/program files (x86)/gnu tools arm embedded/5.4 2016q3/bin/../lib/gcc/arm-none-eabi/5.4.1/../../../../arm-none-eabi/lib/armv7-m\libg_nano.a(lib_a-findfp.o)
 .bss           0x00000000        0x0 d:/program files (x86)/gnu tools arm embedded/5.4 2016q3/bin/../lib/gcc/arm-none-eabi/5.4.1/../../../../arm-none-eabi/lib/armv7-m\libg_nano.a(lib_a-findfp.o)
 .text.__fp_unlock
                0x00000000        0x4 d:/program files (x86)/gnu tools arm embedded/5.4 2016q3/bin/../lib/gcc/arm-none-eabi/5.4.1/../../../../arm-none-eabi/lib/armv7-m\libg_nano.a(lib_a-findfp.o)
 .text.__fp_lock
                0x00000000        0x4 d:/program files (x86)/gnu tools arm embedded/5.4 2016q3/bin/../lib/gcc/arm-none-eabi/5.4.1/../../../../arm-none-eabi/lib/armv7-m\libg_nano.a(lib_a-findfp.o)
 .text._cleanup
                0x00000000        0xc d:/program files (x86)/gnu tools arm embedded/5.4 2016q3/bin/../lib/gcc/arm-none-eabi/5.4.1/../../../../arm-none-eabi/lib/armv7-m\libg_nano.a(lib_a-findfp.o)
 .text.__sfp_lock_acquire
                0x00000000        0x2 d:/program files (x86)/gnu tools arm embedded/5.4 2016q3/bin/../lib/gcc/arm-none-eabi/5.4.1/../../../../arm-none-eabi/lib/armv7-m\libg_nano.a(lib_a-findfp.o)
 .text.__sfp_lock_release
                0x00000000        0x2 d:/program files (x86)/gnu tools arm embedded/5.4 2016q3/bin/../lib/gcc/arm-none-eabi/5.4.1/../../../../arm-none-eabi/lib/armv7-m\libg_nano.a(lib_a-findfp.o)
 .text.__sinit_lock_acquire
                0x00000000        0x2 d:/program files (x86)/gnu tools arm embedded/5.4 2016q3/bin/../lib/gcc/arm-none-eabi/5.4.1/../../../../arm-none-eabi/lib/armv7-m\libg_nano.a(lib_a-findfp.o)
 .text.__sinit_lock_release
                0x00000000        0x2 d:/program files (x86)/gnu tools arm embedded/5.4 2016q3/bin/../lib/gcc/arm-none-eabi/5.4.1/../../../../arm-none-eabi/lib/armv7-m\libg_nano.a(lib_a-findfp.o)
 .text.__fp_lock_all
                0x00000000       0x14 d:/program files (x86)/gnu tools arm embedded/5.4 2016q3/bin/../lib/gcc/arm-none-eabi/5.4.1/../../../../arm-none-eabi/lib/armv7-m\libg_nano.a(lib_a-findfp.o)
 .text.__fp_unlock_all
                0x00000000       0x14 d:/program files (x86)/gnu tools arm embedded/5.4 2016q3/bin/../lib/gcc/arm-none-eabi/5.4.1/../../../../arm-none-eabi/lib/armv7-m\libg_nano.a(lib_a-findfp.o)
 .text          0x00000000        0x0 d:/program files (x86)/gnu tools arm embedded/5.4 2016q3/bin/../lib/gcc/arm-none-eabi/5.4.1/../../../../arm-none-eabi/lib/armv7-m\libg_nano.a(lib_a-fwalk.o)
 .data          0x00000000        0x0 d:/program files (x86)/gnu tools arm embedded/5.4 2016q3/bin/../lib/gcc/arm-none-eabi/5.4.1/../../../../arm-none-eabi/lib/armv7-m\libg_nano.a(lib_a-fwalk.o)
 .bss           0x00000000        0x0 d:/program files (x86)/gnu tools arm embedded/5.4 2016q3/bin/../lib/gcc/arm-none-eabi/5.4.1/../../../../arm-none-eabi/lib/armv7-m\libg_nano.a(lib_a-fwalk.o)
 .text._fwalk   0x00000000       0x38 d:/program files (x86)/gnu tools arm embedded/5.4 2016q3/bin/../lib/gcc/arm-none-eabi/5.4.1/../../../../arm-none-eabi/lib/armv7-m\libg_nano.a(lib_a-fwalk.o)
 .text          0x00000000        0x0 d:/program files (x86)/gnu tools arm embedded/5.4 2016q3/bin/../lib/gcc/arm-none-eabi/5.4.1/../../../../arm-none-eabi/lib/armv7-m\libg_nano.a(lib_a-localeconv.o)
 .data          0x00000000        0x0 d:/program files (x86)/gnu tools arm embedded/5.4 2016q3/bin/../lib/gcc/arm-none-eabi/5.4.1/../../../../arm-none-eabi/lib/armv7-m\libg_nano.a(lib_a-localeconv.o)
 .bss           0x00000000        0x0 d:/program files (x86)/gnu tools arm embedded/5.4 2016q3/bin/../lib/gcc/arm-none-eabi/5.4.1/../../../../arm-none-eabi/lib/armv7-m\libg_nano.a(lib_a-localeconv.o)
 .text.__localeconv_l
                0x00000000        0x4 d:/program files (x86)/gnu tools arm embedded/5.4 2016q3/bin/../lib/gcc/arm-none-eabi/5.4.1/../../../../arm-none-eabi/lib/armv7-m\libg_nano.a(lib_a-localeconv.o)
 .text.localeconv
                0x00000000       0x1c d:/program files (x86)/gnu tools arm embedded/5.4 2016q3/bin/../lib/gcc/arm-none-eabi/5.4.1/../../../../arm-none-eabi/lib/armv7-m\libg_nano.a(lib_a-localeconv.o)
 .text          0x00000000        0x0 d:/program files (x86)/gnu tools arm embedded/5.4 2016q3/bin/../lib/gcc/arm-none-eabi/5.4.1/../../../../arm-none-eabi/lib/armv7-m\libg_nano.a(lib_a-makebuf.o)
 .data          0x00000000        0x0 d:/program files (x86)/gnu tools arm embedded/5.4 2016q3/bin/../lib/gcc/arm-none-eabi/5.4.1/../../../../arm-none-eabi/lib/armv7-m\libg_nano.a(lib_a-makebuf.o)
 .bss           0x00000000        0x0 d:/program files (x86)/gnu tools arm embedded/5.4 2016q3/bin/../lib/gcc/arm-none-eabi/5.4.1/../../../../arm-none-eabi/lib/armv7-m\libg_nano.a(lib_a-makebuf.o)
 .text          0x00000000        0x0 d:/program files (x86)/gnu tools arm embedded/5.4 2016q3/bin/../lib/gcc/arm-none-eabi/5.4.1/../../../../arm-none-eabi/lib/armv7-m\libg_nano.a(lib_a-malloc.o)
 .data          0x00000000        0x0 d:/program files (x86)/gnu tools arm embedded/5.4 2016q3/bin/../lib/gcc/arm-none-eabi/5.4.1/../../../../arm-none-eabi/lib/armv7-m\libg_nano.a(lib_a-malloc.o)
 .bss           0x00000000        0x0 d:/program files (x86)/gnu tools arm embedded/5.4 2016q3/bin/../lib/gcc/arm-none-eabi/5.4.1/../../../../arm-none-eabi/lib/armv7-m\libg_nano.a(lib_a-malloc.o)
 .text.free     0x00000000       0x10 d:/program files (x86)/gnu tools arm embedded/5.4 2016q3/bin/../lib/gcc/arm-none-eabi/5.4.1/../../../../arm-none-eabi/lib/armv7-m\libg_nano.a(lib_a-malloc.o)
 .text          0x00000000        0x0 d:/program files (x86)/gnu tools arm embedded/5.4 2016q3/bin/../lib/gcc/arm-none-eabi/5.4.1/../../../../arm-none-eabi/lib/armv7-m\libg_nano.a(lib_a-memchr-stub.o)
 .data          0x00000000        0x0 d:/program files (x86)/gnu tools arm embedded/5.4 2016q3/bin/../lib/gcc/arm-none-eabi/5.4.1/../../../../arm-none-eabi/lib/armv7-m\libg_nano.a(lib_a-memchr-stub.o)
 .bss           0x00000000        0x0 d:/program files (x86)/gnu tools arm embedded/5.4 2016q3/bin/../lib/gcc/arm-none-eabi/5.4.1/../../../../arm-none-eabi/lib/armv7-m\libg_nano.a(lib_a-memchr-stub.o)
 .text          0x00000000        0x0 d:/program files (x86)/gnu tools arm embedded/5.4 2016q3/bin/../lib/gcc/arm-none-eabi/5.4.1/../../../../arm-none-eabi/lib/armv7-m\libg_nano.a(lib_a-memcpy-stub.o)
 .data          0x00000000        0x0 d:/program files (x86)/gnu tools arm embedded/5.4 2016q3/bin/../lib/gcc/arm-none-eabi/5.4.1/../../../../arm-none-eabi/lib/armv7-m\libg_nano.a(lib_a-memcpy-stub.o)
 .bss           0x00000000        0x0 d:/program files (x86)/gnu tools arm embedded/5.4 2016q3/bin/../lib/gcc/arm-none-eabi/5.4.1/../../../../arm-none-eabi/lib/armv7-m\libg_nano.a(lib_a-memcpy-stub.o)
 .text          0x00000000        0x0 d:/program files (x86)/gnu tools arm embedded/5.4 2016q3/bin/../lib/gcc/arm-none-eabi/5.4.1/../../../../arm-none-eabi/lib/armv7-m\libg_nano.a(lib_a-mprec.o)
 .data          0x00000000        0x0 d:/program files (x86)/gnu tools arm embedded/5.4 2016q3/bin/../lib/gcc/arm-none-eabi/5.4.1/../../../../arm-none-eabi/lib/armv7-m\libg_nano.a(lib_a-mprec.o)
 .bss           0x00000000        0x0 d:/program files (x86)/gnu tools arm embedded/5.4 2016q3/bin/../lib/gcc/arm-none-eabi/5.4.1/../../../../arm-none-eabi/lib/armv7-m\libg_nano.a(lib_a-mprec.o)
 .text.__s2b    0x00000000       0x7c d:/program files (x86)/gnu tools arm embedded/5.4 2016q3/bin/../lib/gcc/arm-none-eabi/5.4.1/../../../../arm-none-eabi/lib/armv7-m\libg_nano.a(lib_a-mprec.o)
 .text.__ulp    0x00000000       0x48 d:/program files (x86)/gnu tools arm embedded/5.4 2016q3/bin/../lib/gcc/arm-none-eabi/5.4.1/../../../../arm-none-eabi/lib/armv7-m\libg_nano.a(lib_a-mprec.o)
 .text.__b2d    0x00000000       0x9a d:/program files (x86)/gnu tools arm embedded/5.4 2016q3/bin/../lib/gcc/arm-none-eabi/5.4.1/../../../../arm-none-eabi/lib/armv7-m\libg_nano.a(lib_a-mprec.o)
 .text.__ratio  0x00000000       0x50 d:/program files (x86)/gnu tools arm embedded/5.4 2016q3/bin/../lib/gcc/arm-none-eabi/5.4.1/../../../../arm-none-eabi/lib/armv7-m\libg_nano.a(lib_a-mprec.o)
 .text._mprec_log10
                0x00000000       0x34 d:/program files (x86)/gnu tools arm embedded/5.4 2016q3/bin/../lib/gcc/arm-none-eabi/5.4.1/../../../../arm-none-eabi/lib/armv7-m\libg_nano.a(lib_a-mprec.o)
 .text.__copybits
                0x00000000       0x34 d:/program files (x86)/gnu tools arm embedded/5.4 2016q3/bin/../lib/gcc/arm-none-eabi/5.4.1/../../../../arm-none-eabi/lib/armv7-m\libg_nano.a(lib_a-mprec.o)
 .text.__any_on
                0x00000000       0x44 d:/program files (x86)/gnu tools arm embedded/5.4 2016q3/bin/../lib/gcc/arm-none-eabi/5.4.1/../../../../arm-none-eabi/lib/armv7-m\libg_nano.a(lib_a-mprec.o)
 .rodata.__mprec_tinytens
                0x00000000       0x28 d:/program files (x86)/gnu tools arm embedded/5.4 2016q3/bin/../lib/gcc/arm-none-eabi/5.4.1/../../../../arm-none-eabi/lib/armv7-m\libg_nano.a(lib_a-mprec.o)
 .text          0x00000000        0x0 d:/program files (x86)/gnu tools arm embedded/5.4 2016q3/bin/../lib/gcc/arm-none-eabi/5.4.1/../../../../arm-none-eabi/lib/armv7-m\libg_nano.a(lib_a-nano-callocr.o)
 .data          0x00000000        0x0 d:/program files (x86)/gnu tools arm embedded/5.4 2016q3/bin/../lib/gcc/arm-none-eabi/5.4.1/../../../../arm-none-eabi/lib/armv7-m\libg_nano.a(lib_a-nano-callocr.o)
 .bss           0x00000000        0x0 d:/program files (x86)/gnu tools arm embedded/5.4 2016q3/bin/../lib/gcc/arm-none-eabi/5.4.1/../../../../arm-none-eabi/lib/armv7-m\libg_nano.a(lib_a-nano-callocr.o)
 .text          0x00000000        0x0 d:/program files (x86)/gnu tools arm embedded/5.4 2016q3/bin/../lib/gcc/arm-none-eabi/5.4.1/../../../../arm-none-eabi/lib/armv7-m\libg_nano.a(lib_a-nano-freer.o)
 .data          0x00000000        0x0 d:/program files (x86)/gnu tools arm embedded/5.4 2016q3/bin/../lib/gcc/arm-none-eabi/5.4.1/../../../../arm-none-eabi/lib/armv7-m\libg_nano.a(lib_a-nano-freer.o)
 .bss           0x00000000        0x0 d:/program files (x86)/gnu tools arm embedded/5.4 2016q3/bin/../lib/gcc/arm-none-eabi/5.4.1/../../../../arm-none-eabi/lib/armv7-m\libg_nano.a(lib_a-nano-freer.o)
 .text          0x00000000        0x0 d:/program files (x86)/gnu tools arm embedded/5.4 2016q3/bin/../lib/gcc/arm-none-eabi/5.4.1/../../../../arm-none-eabi/lib/armv7-m\libg_nano.a(lib_a-nano-mallocr.o)
 .data          0x00000000        0x0 d:/program files (x86)/gnu tools arm embedded/5.4 2016q3/bin/../lib/gcc/arm-none-eabi/5.4.1/../../../../arm-none-eabi/lib/armv7-m\libg_nano.a(lib_a-nano-mallocr.o)
 .bss           0x00000000        0x0 d:/program files (x86)/gnu tools arm embedded/5.4 2016q3/bin/../lib/gcc/arm-none-eabi/5.4.1/../../../../arm-none-eabi/lib/armv7-m\libg_nano.a(lib_a-nano-mallocr.o)
 .text          0x00000000        0x0 d:/program files (x86)/gnu tools arm embedded/5.4 2016q3/bin/../lib/gcc/arm-none-eabi/5.4.1/../../../../arm-none-eabi/lib/armv7-m\libg_nano.a(lib_a-nano-vfprintf.o)
 .data          0x00000000        0x0 d:/program files (x86)/gnu tools arm embedded/5.4 2016q3/bin/../lib/gcc/arm-none-eabi/5.4.1/../../../../arm-none-eabi/lib/armv7-m\libg_nano.a(lib_a-nano-vfprintf.o)
 .bss           0x00000000        0x0 d:/program files (x86)/gnu tools arm embedded/5.4 2016q3/bin/../lib/gcc/arm-none-eabi/5.4.1/../../../../arm-none-eabi/lib/armv7-m\libg_nano.a(lib_a-nano-vfprintf.o)
 .text.__sprint_r
                0x00000000       0x1a d:/program files (x86)/gnu tools arm embedded/5.4 2016q3/bin/../lib/gcc/arm-none-eabi/5.4.1/../../../../arm-none-eabi/lib/armv7-m\libg_nano.a(lib_a-nano-vfprintf.o)
 .text.vfprintf
                0x00000000       0x14 d:/program files (x86)/gnu tools arm embedded/5.4 2016q3/bin/../lib/gcc/arm-none-eabi/5.4.1/../../../../arm-none-eabi/lib/armv7-m\libg_nano.a(lib_a-nano-vfprintf.o)
 .text          0x00000000        0x0 d:/program files (x86)/gnu tools arm embedded/5.4 2016q3/bin/../lib/gcc/arm-none-eabi/5.4.1/../../../../arm-none-eabi/lib/armv7-m\libg_nano.a(lib_a-sbrkr.o)
 .data          0x00000000        0x0 d:/program files (x86)/gnu tools arm embedded/5.4 2016q3/bin/../lib/gcc/arm-none-eabi/5.4.1/../../../../arm-none-eabi/lib/armv7-m\libg_nano.a(lib_a-sbrkr.o)
 .bss           0x00000000        0x0 d:/program files (x86)/gnu tools arm embedded/5.4 2016q3/bin/../lib/gcc/arm-none-eabi/5.4.1/../../../../arm-none-eabi/lib/armv7-m\libg_nano.a(lib_a-sbrkr.o)
 .text          0x00000000        0x0 d:/program files (x86)/gnu tools arm embedded/5.4 2016q3/bin/../lib/gcc/arm-none-eabi/5.4.1/../../../../arm-none-eabi/lib/armv7-m\libg_nano.a(lib_a-stdio.o)
 .data          0x00000000        0x0 d:/program files (x86)/gnu tools arm embedded/5.4 2016q3/bin/../lib/gcc/arm-none-eabi/5.4.1/../../../../arm-none-eabi/lib/armv7-m\libg_nano.a(lib_a-stdio.o)
 .bss           0x00000000        0x0 d:/program files (x86)/gnu tools arm embedded/5.4 2016q3/bin/../lib/gcc/arm-none-eabi/5.4.1/../../../../arm-none-eabi/lib/armv7-m\libg_nano.a(lib_a-stdio.o)
 .text.__seofread
                0x00000000        0x4 d:/program files (x86)/gnu tools arm embedded/5.4 2016q3/bin/../lib/gcc/arm-none-eabi/5.4.1/../../../../arm-none-eabi/lib/armv7-m\libg_nano.a(lib_a-stdio.o)
 .text          0x00000000        0x0 d:/program files (x86)/gnu tools arm embedded/5.4 2016q3/bin/../lib/gcc/arm-none-eabi/5.4.1/../../../../arm-none-eabi/lib/armv7-m\libg_nano.a(lib_a-writer.o)
 .data          0x00000000        0x0 d:/program files (x86)/gnu tools arm embedded/5.4 2016q3/bin/../lib/gcc/arm-none-eabi/5.4.1/../../../../arm-none-eabi/lib/armv7-m\libg_nano.a(lib_a-writer.o)
 .bss           0x00000000        0x0 d:/program files (x86)/gnu tools arm embedded/5.4 2016q3/bin/../lib/gcc/arm-none-eabi/5.4.1/../../../../arm-none-eabi/lib/armv7-m\libg_nano.a(lib_a-writer.o)
 .text          0x00000000        0x0 d:/program files (x86)/gnu tools arm embedded/5.4 2016q3/bin/../lib/gcc/arm-none-eabi/5.4.1/../../../../arm-none-eabi/lib/armv7-m\libg_nano.a(lib_a-closer.o)
 .data          0x00000000        0x0 d:/program files (x86)/gnu tools arm embedded/5.4 2016q3/bin/../lib/gcc/arm-none-eabi/5.4.1/../../../../arm-none-eabi/lib/armv7-m\libg_nano.a(lib_a-closer.o)
 .bss           0x00000000        0x0 d:/program files (x86)/gnu tools arm embedded/5.4 2016q3/bin/../lib/gcc/arm-none-eabi/5.4.1/../../../../arm-none-eabi/lib/armv7-m\libg_nano.a(lib_a-closer.o)
 .text          0x00000000        0x0 d:/program files (x86)/gnu tools arm embedded/5.4 2016q3/bin/../lib/gcc/arm-none-eabi/5.4.1/../../../../arm-none-eabi/lib/armv7-m\libg_nano.a(lib_a-fstatr.o)
 .data          0x00000000        0x0 d:/program files (x86)/gnu tools arm embedded/5.4 2016q3/bin/../lib/gcc/arm-none-eabi/5.4.1/../../../../arm-none-eabi/lib/armv7-m\libg_nano.a(lib_a-fstatr.o)
 .bss           0x00000000        0x0 d:/program files (x86)/gnu tools arm embedded/5.4 2016q3/bin/../lib/gcc/arm-none-eabi/5.4.1/../../../../arm-none-eabi/lib/armv7-m\libg_nano.a(lib_a-fstatr.o)
 .text          0x00000000        0x0 d:/program files (x86)/gnu tools arm embedded/5.4 2016q3/bin/../lib/gcc/arm-none-eabi/5.4.1/../../../../arm-none-eabi/lib/armv7-m\libg_nano.a(lib_a-fvwrite.o)
 .data          0x00000000        0x0 d:/program files (x86)/gnu tools arm embedded/5.4 2016q3/bin/../lib/gcc/arm-none-eabi/5.4.1/../../../../arm-none-eabi/lib/armv7-m\libg_nano.a(lib_a-fvwrite.o)
 .bss           0x00000000        0x0 d:/program files (x86)/gnu tools arm embedded/5.4 2016q3/bin/../lib/gcc/arm-none-eabi/5.4.1/../../../../arm-none-eabi/lib/armv7-m\libg_nano.a(lib_a-fvwrite.o)
 .text.__sfvwrite_r
                0x00000000      0x294 d:/program files (x86)/gnu tools arm embedded/5.4 2016q3/bin/../lib/gcc/arm-none-eabi/5.4.1/../../../../arm-none-eabi/lib/armv7-m\libg_nano.a(lib_a-fvwrite.o)
 .debug_frame   0x00000000       0x3c d:/program files (x86)/gnu tools arm embedded/5.4 2016q3/bin/../lib/gcc/arm-none-eabi/5.4.1/../../../../arm-none-eabi/lib/armv7-m\libg_nano.a(lib_a-fvwrite.o)
 .ARM.attributes
                0x00000000       0x2d d:/program files (x86)/gnu tools arm embedded/5.4 2016q3/bin/../lib/gcc/arm-none-eabi/5.4.1/../../../../arm-none-eabi/lib/armv7-m\libg_nano.a(lib_a-fvwrite.o)
 .text          0x00000000        0x0 d:/program files (x86)/gnu tools arm embedded/5.4 2016q3/bin/../lib/gcc/arm-none-eabi/5.4.1/../../../../arm-none-eabi/lib/armv7-m\libg_nano.a(lib_a-isattyr.o)
 .data          0x00000000        0x0 d:/program files (x86)/gnu tools arm embedded/5.4 2016q3/bin/../lib/gcc/arm-none-eabi/5.4.1/../../../../arm-none-eabi/lib/armv7-m\libg_nano.a(lib_a-isattyr.o)
 .bss           0x00000000        0x0 d:/program files (x86)/gnu tools arm embedded/5.4 2016q3/bin/../lib/gcc/arm-none-eabi/5.4.1/../../../../arm-none-eabi/lib/armv7-m\libg_nano.a(lib_a-isattyr.o)
 .text          0x00000000        0x0 d:/program files (x86)/gnu tools arm embedded/5.4 2016q3/bin/../lib/gcc/arm-none-eabi/5.4.1/../../../../arm-none-eabi/lib/armv7-m\libg_nano.a(lib_a-locale.o)
 .data          0x00000000        0x0 d:/program files (x86)/gnu tools arm embedded/5.4 2016q3/bin/../lib/gcc/arm-none-eabi/5.4.1/../../../../arm-none-eabi/lib/armv7-m\libg_nano.a(lib_a-locale.o)
 .bss           0x00000000        0x0 d:/program files (x86)/gnu tools arm embedded/5.4 2016q3/bin/../lib/gcc/arm-none-eabi/5.4.1/../../../../arm-none-eabi/lib/armv7-m\libg_nano.a(lib_a-locale.o)
 .text.__get_current_locale
                0x00000000       0x18 d:/program files (x86)/gnu tools arm embedded/5.4 2016q3/bin/../lib/gcc/arm-none-eabi/5.4.1/../../../../arm-none-eabi/lib/armv7-m\libg_nano.a(lib_a-locale.o)
 .text._setlocale_r
                0x00000000       0x38 d:/program files (x86)/gnu tools arm embedded/5.4 2016q3/bin/../lib/gcc/arm-none-eabi/5.4.1/../../../../arm-none-eabi/lib/armv7-m\libg_nano.a(lib_a-locale.o)
 .text.__locale_mb_cur_max
                0x00000000        0xc d:/program files (x86)/gnu tools arm embedded/5.4 2016q3/bin/../lib/gcc/arm-none-eabi/5.4.1/../../../../arm-none-eabi/lib/armv7-m\libg_nano.a(lib_a-locale.o)
 .text.__locale_ctype_ptr_l
                0x00000000        0x6 d:/program files (x86)/gnu tools arm embedded/5.4 2016q3/bin/../lib/gcc/arm-none-eabi/5.4.1/../../../../arm-none-eabi/lib/armv7-m\libg_nano.a(lib_a-locale.o)
 .text.__locale_ctype_ptr
                0x00000000       0x14 d:/program files (x86)/gnu tools arm embedded/5.4 2016q3/bin/../lib/gcc/arm-none-eabi/5.4.1/../../../../arm-none-eabi/lib/armv7-m\libg_nano.a(lib_a-locale.o)
 .text.setlocale
                0x00000000       0x10 d:/program files (x86)/gnu tools arm embedded/5.4 2016q3/bin/../lib/gcc/arm-none-eabi/5.4.1/../../../../arm-none-eabi/lib/armv7-m\libg_nano.a(lib_a-locale.o)
 .bss._PathLocale
                0x00000000        0x4 d:/program files (x86)/gnu tools arm embedded/5.4 2016q3/bin/../lib/gcc/arm-none-eabi/5.4.1/../../../../arm-none-eabi/lib/armv7-m\libg_nano.a(lib_a-locale.o)
 .text          0x00000000        0x0 d:/program files (x86)/gnu tools arm embedded/5.4 2016q3/bin/../lib/gcc/arm-none-eabi/5.4.1/../../../../arm-none-eabi/lib/armv7-m\libg_nano.a(lib_a-lseekr.o)
 .data          0x00000000        0x0 d:/program files (x86)/gnu tools arm embedded/5.4 2016q3/bin/../lib/gcc/arm-none-eabi/5.4.1/../../../../arm-none-eabi/lib/armv7-m\libg_nano.a(lib_a-lseekr.o)
 .bss           0x00000000        0x0 d:/program files (x86)/gnu tools arm embedded/5.4 2016q3/bin/../lib/gcc/arm-none-eabi/5.4.1/../../../../arm-none-eabi/lib/armv7-m\libg_nano.a(lib_a-lseekr.o)
 .text          0x00000000        0x0 d:/program files (x86)/gnu tools arm embedded/5.4 2016q3/bin/../lib/gcc/arm-none-eabi/5.4.1/../../../../arm-none-eabi/lib/armv7-m\libg_nano.a(lib_a-mbtowc_r.o)
 .data          0x00000000        0x0 d:/program files (x86)/gnu tools arm embedded/5.4 2016q3/bin/../lib/gcc/arm-none-eabi/5.4.1/../../../../arm-none-eabi/lib/armv7-m\libg_nano.a(lib_a-mbtowc_r.o)
 .bss           0x00000000        0x0 d:/program files (x86)/gnu tools arm embedded/5.4 2016q3/bin/../lib/gcc/arm-none-eabi/5.4.1/../../../../arm-none-eabi/lib/armv7-m\libg_nano.a(lib_a-mbtowc_r.o)
 .text._mbtowc_r
                0x00000000       0x24 d:/program files (x86)/gnu tools arm embedded/5.4 2016q3/bin/../lib/gcc/arm-none-eabi/5.4.1/../../../../arm-none-eabi/lib/armv7-m\libg_nano.a(lib_a-mbtowc_r.o)
 .text          0x00000000        0x0 d:/program files (x86)/gnu tools arm embedded/5.4 2016q3/bin/../lib/gcc/arm-none-eabi/5.4.1/../../../../arm-none-eabi/lib/armv7-m\libg_nano.a(lib_a-memmove.o)
 .data          0x00000000        0x0 d:/program files (x86)/gnu tools arm embedded/5.4 2016q3/bin/../lib/gcc/arm-none-eabi/5.4.1/../../../../arm-none-eabi/lib/armv7-m\libg_nano.a(lib_a-memmove.o)
 .bss           0x00000000        0x0 d:/program files (x86)/gnu tools arm embedded/5.4 2016q3/bin/../lib/gcc/arm-none-eabi/5.4.1/../../../../arm-none-eabi/lib/armv7-m\libg_nano.a(lib_a-memmove.o)
 .text.memmove  0x00000000       0x36 d:/program files (x86)/gnu tools arm embedded/5.4 2016q3/bin/../lib/gcc/arm-none-eabi/5.4.1/../../../../arm-none-eabi/lib/armv7-m\libg_nano.a(lib_a-memmove.o)
 .debug_frame   0x00000000       0x28 d:/program files (x86)/gnu tools arm embedded/5.4 2016q3/bin/../lib/gcc/arm-none-eabi/5.4.1/../../../../arm-none-eabi/lib/armv7-m\libg_nano.a(lib_a-memmove.o)
 .ARM.attributes
                0x00000000       0x2d d:/program files (x86)/gnu tools arm embedded/5.4 2016q3/bin/../lib/gcc/arm-none-eabi/5.4.1/../../../../arm-none-eabi/lib/armv7-m\libg_nano.a(lib_a-memmove.o)
 .text          0x00000000        0x0 d:/program files (x86)/gnu tools arm embedded/5.4 2016q3/bin/../lib/gcc/arm-none-eabi/5.4.1/../../../../arm-none-eabi/lib/armv7-m\libg_nano.a(lib_a-mlock.o)
 .data          0x00000000        0x0 d:/program files (x86)/gnu tools arm embedded/5.4 2016q3/bin/../lib/gcc/arm-none-eabi/5.4.1/../../../../arm-none-eabi/lib/armv7-m\libg_nano.a(lib_a-mlock.o)
 .bss           0x00000000        0x0 d:/program files (x86)/gnu tools arm embedded/5.4 2016q3/bin/../lib/gcc/arm-none-eabi/5.4.1/../../../../arm-none-eabi/lib/armv7-m\libg_nano.a(lib_a-mlock.o)
 .text          0x00000000        0x0 d:/program files (x86)/gnu tools arm embedded/5.4 2016q3/bin/../lib/gcc/arm-none-eabi/5.4.1/../../../../arm-none-eabi/lib/armv7-m\libg_nano.a(lib_a-nano-reallocr.o)
 .data          0x00000000        0x0 d:/program files (x86)/gnu tools arm embedded/5.4 2016q3/bin/../lib/gcc/arm-none-eabi/5.4.1/../../../../arm-none-eabi/lib/armv7-m\libg_nano.a(lib_a-nano-reallocr.o)
 .bss           0x00000000        0x0 d:/program files (x86)/gnu tools arm embedded/5.4 2016q3/bin/../lib/gcc/arm-none-eabi/5.4.1/../../../../arm-none-eabi/lib/armv7-m\libg_nano.a(lib_a-nano-reallocr.o)
 .text._realloc_r
                0x00000000       0x4c d:/program files (x86)/gnu tools arm embedded/5.4 2016q3/bin/../lib/gcc/arm-none-eabi/5.4.1/../../../../arm-none-eabi/lib/armv7-m\libg_nano.a(lib_a-nano-reallocr.o)
 .debug_frame   0x00000000       0x3c d:/program files (x86)/gnu tools arm embedded/5.4 2016q3/bin/../lib/gcc/arm-none-eabi/5.4.1/../../../../arm-none-eabi/lib/armv7-m\libg_nano.a(lib_a-nano-reallocr.o)
 .ARM.attributes
                0x00000000       0x2d d:/program files (x86)/gnu tools arm embedded/5.4 2016q3/bin/../lib/gcc/arm-none-eabi/5.4.1/../../../../arm-none-eabi/lib/armv7-m\libg_nano.a(lib_a-nano-reallocr.o)
 .text          0x00000000        0x0 d:/program files (x86)/gnu tools arm embedded/5.4 2016q3/bin/../lib/gcc/arm-none-eabi/5.4.1/../../../../arm-none-eabi/lib/armv7-m\libg_nano.a(lib_a-readr.o)
 .data          0x00000000        0x0 d:/program files (x86)/gnu tools arm embedded/5.4 2016q3/bin/../lib/gcc/arm-none-eabi/5.4.1/../../../../arm-none-eabi/lib/armv7-m\libg_nano.a(lib_a-readr.o)
 .bss           0x00000000        0x0 d:/program files (x86)/gnu tools arm embedded/5.4 2016q3/bin/../lib/gcc/arm-none-eabi/5.4.1/../../../../arm-none-eabi/lib/armv7-m\libg_nano.a(lib_a-readr.o)
 .text          0x00000000        0x0 d:/program files (x86)/gnu tools arm embedded/5.4 2016q3/bin/../lib/gcc/arm-none-eabi/5.4.1/../../../../arm-none-eabi/lib/armv7-m\libg_nano.a(lib_a-reent.o)
 .data          0x00000000        0x0 d:/program files (x86)/gnu tools arm embedded/5.4 2016q3/bin/../lib/gcc/arm-none-eabi/5.4.1/../../../../arm-none-eabi/lib/armv7-m\libg_nano.a(lib_a-reent.o)
 .bss           0x00000000        0x0 d:/program files (x86)/gnu tools arm embedded/5.4 2016q3/bin/../lib/gcc/arm-none-eabi/5.4.1/../../../../arm-none-eabi/lib/armv7-m\libg_nano.a(lib_a-reent.o)
 .text.cleanup_glue
                0x00000000       0x1a d:/program files (x86)/gnu tools arm embedded/5.4 2016q3/bin/../lib/gcc/arm-none-eabi/5.4.1/../../../../arm-none-eabi/lib/armv7-m\libg_nano.a(lib_a-reent.o)
 .text._reclaim_reent
                0x00000000       0xb4 d:/program files (x86)/gnu tools arm embedded/5.4 2016q3/bin/../lib/gcc/arm-none-eabi/5.4.1/../../../../arm-none-eabi/lib/armv7-m\libg_nano.a(lib_a-reent.o)
 .text          0x00000000       0x14 d:/program files (x86)/gnu tools arm embedded/5.4 2016q3/bin/../lib/gcc/arm-none-eabi/5.4.1/../../../../arm-none-eabi/lib/armv7-m\libg_nano.a(lib_a-strcmp.o)
 .data          0x00000000        0x0 d:/program files (x86)/gnu tools arm embedded/5.4 2016q3/bin/../lib/gcc/arm-none-eabi/5.4.1/../../../../arm-none-eabi/lib/armv7-m\libg_nano.a(lib_a-strcmp.o)
 .bss           0x00000000        0x0 d:/program files (x86)/gnu tools arm embedded/5.4 2016q3/bin/../lib/gcc/arm-none-eabi/5.4.1/../../../../arm-none-eabi/lib/armv7-m\libg_nano.a(lib_a-strcmp.o)
 .debug_frame   0x00000000       0x20 d:/program files (x86)/gnu tools arm embedded/5.4 2016q3/bin/../lib/gcc/arm-none-eabi/5.4.1/../../../../arm-none-eabi/lib/armv7-m\libg_nano.a(lib_a-strcmp.o)
 .ARM.attributes
                0x00000000       0x1b d:/program files (x86)/gnu tools arm embedded/5.4 2016q3/bin/../lib/gcc/arm-none-eabi/5.4.1/../../../../arm-none-eabi/lib/armv7-m\libg_nano.a(lib_a-strcmp.o)
 .text          0x00000000        0x0 d:/program files (x86)/gnu tools arm embedded/5.4 2016q3/bin/../lib/gcc/arm-none-eabi/5.4.1/../../../../arm-none-eabi/lib/armv7-m\libg_nano.a(lib_a-wctomb_r.o)
 .data          0x00000000        0x0 d:/program files (x86)/gnu tools arm embedded/5.4 2016q3/bin/../lib/gcc/arm-none-eabi/5.4.1/../../../../arm-none-eabi/lib/armv7-m\libg_nano.a(lib_a-wctomb_r.o)
 .bss           0x00000000        0x0 d:/program files (x86)/gnu tools arm embedded/5.4 2016q3/bin/../lib/gcc/arm-none-eabi/5.4.1/../../../../arm-none-eabi/lib/armv7-m\libg_nano.a(lib_a-wctomb_r.o)
 .text._wctomb_r
                0x00000000       0x24 d:/program files (x86)/gnu tools arm embedded/5.4 2016q3/bin/../lib/gcc/arm-none-eabi/5.4.1/../../../../arm-none-eabi/lib/armv7-m\libg_nano.a(lib_a-wctomb_r.o)
 .text          0x00000000        0x0 d:/program files (x86)/gnu tools arm embedded/5.4 2016q3/bin/../lib/gcc/arm-none-eabi/5.4.1/../../../../arm-none-eabi/lib/armv7-m\libg_nano.a(lib_a-ctype_.o)
 .data          0x00000000        0x0 d:/program files (x86)/gnu tools arm embedded/5.4 2016q3/bin/../lib/gcc/arm-none-eabi/5.4.1/../../../../arm-none-eabi/lib/armv7-m\libg_nano.a(lib_a-ctype_.o)
 .bss           0x00000000        0x0 d:/program files (x86)/gnu tools arm embedded/5.4 2016q3/bin/../lib/gcc/arm-none-eabi/5.4.1/../../../../arm-none-eabi/lib/armv7-m\libg_nano.a(lib_a-ctype_.o)
 .text          0x00000000        0x0 d:/program files (x86)/gnu tools arm embedded/5.4 2016q3/bin/../lib/gcc/arm-none-eabi/5.4.1/../../../../arm-none-eabi/lib/armv7-m\libg_nano.a(lib_a-nano-msizer.o)
 .data          0x00000000        0x0 d:/program files (x86)/gnu tools arm embedded/5.4 2016q3/bin/../lib/gcc/arm-none-eabi/5.4.1/../../../../arm-none-eabi/lib/armv7-m\libg_nano.a(lib_a-nano-msizer.o)
 .bss           0x00000000        0x0 d:/program files (x86)/gnu tools arm embedded/5.4 2016q3/bin/../lib/gcc/arm-none-eabi/5.4.1/../../../../arm-none-eabi/lib/armv7-m\libg_nano.a(lib_a-nano-msizer.o)
 .text._malloc_usable_size_r
                0x00000000       0x14 d:/program files (x86)/gnu tools arm embedded/5.4 2016q3/bin/../lib/gcc/arm-none-eabi/5.4.1/../../../../arm-none-eabi/lib/armv7-m\libg_nano.a(lib_a-nano-msizer.o)
 .debug_frame   0x00000000       0x20 d:/program files (x86)/gnu tools arm embedded/5.4 2016q3/bin/../lib/gcc/arm-none-eabi/5.4.1/../../../../arm-none-eabi/lib/armv7-m\libg_nano.a(lib_a-nano-msizer.o)
 .ARM.attributes
                0x00000000       0x2d d:/program files (x86)/gnu tools arm embedded/5.4 2016q3/bin/../lib/gcc/arm-none-eabi/5.4.1/../../../../arm-none-eabi/lib/armv7-m\libg_nano.a(lib_a-nano-msizer.o)
 .data          0x00000000        0x0 d:/program files (x86)/gnu tools arm embedded/5.4 2016q3/bin/../lib/gcc/arm-none-eabi/5.4.1/armv7-m\libgcc.a(_arm_cmpdf2.o)
 .bss           0x00000000        0x0 d:/program files (x86)/gnu tools arm embedded/5.4 2016q3/bin/../lib/gcc/arm-none-eabi/5.4.1/armv7-m\libgcc.a(_arm_cmpdf2.o)
 .data          0x00000000        0x0 d:/program files (x86)/gnu tools arm embedded/5.4 2016q3/bin/../lib/gcc/arm-none-eabi/5.4.1/armv7-m\libgcc.a(_arm_unorddf2.o)
 .bss           0x00000000        0x0 d:/program files (x86)/gnu tools arm embedded/5.4 2016q3/bin/../lib/gcc/arm-none-eabi/5.4.1/armv7-m\libgcc.a(_arm_unorddf2.o)
 .data          0x00000000        0x0 d:/program files (x86)/gnu tools arm embedded/5.4 2016q3/bin/../lib/gcc/arm-none-eabi/5.4.1/armv7-m\libgcc.a(_arm_fixdfsi.o)
 .bss           0x00000000        0x0 d:/program files (x86)/gnu tools arm embedded/5.4 2016q3/bin/../lib/gcc/arm-none-eabi/5.4.1/armv7-m\libgcc.a(_arm_fixdfsi.o)
 .text          0x00000000        0x0 d:/program files (x86)/gnu tools arm embedded/5.4 2016q3/bin/../lib/gcc/arm-none-eabi/5.4.1/../../../../arm-none-eabi/lib/armv7-m\libnosys.a(fstat.o)
 .data          0x00000000        0x0 d:/program files (x86)/gnu tools arm embedded/5.4 2016q3/bin/../lib/gcc/arm-none-eabi/5.4.1/../../../../arm-none-eabi/lib/armv7-m\libnosys.a(fstat.o)
 .bss           0x00000000        0x0 d:/program files (x86)/gnu tools arm embedded/5.4 2016q3/bin/../lib/gcc/arm-none-eabi/5.4.1/../../../../arm-none-eabi/lib/armv7-m\libnosys.a(fstat.o)
 .text          0x00000000        0x0 d:/program files (x86)/gnu tools arm embedded/5.4 2016q3/bin/../lib/gcc/arm-none-eabi/5.4.1/../../../../arm-none-eabi/lib/armv7-m\libnosys.a(sbrk.o)
 .data          0x00000000        0x0 d:/program files (x86)/gnu tools arm embedded/5.4 2016q3/bin/../lib/gcc/arm-none-eabi/5.4.1/../../../../arm-none-eabi/lib/armv7-m\libnosys.a(sbrk.o)
 .bss           0x00000000        0x0 d:/program files (x86)/gnu tools arm embedded/5.4 2016q3/bin/../lib/gcc/arm-none-eabi/5.4.1/../../../../arm-none-eabi/lib/armv7-m\libnosys.a(sbrk.o)
 .text          0x00000000        0x0 d:/program files (x86)/gnu tools arm embedded/5.4 2016q3/bin/../lib/gcc/arm-none-eabi/5.4.1/../../../../arm-none-eabi/lib/armv7-m\libnosys.a(_exit.o)
 .data          0x00000000        0x0 d:/program files (x86)/gnu tools arm embedded/5.4 2016q3/bin/../lib/gcc/arm-none-eabi/5.4.1/../../../../arm-none-eabi/lib/armv7-m\libnosys.a(_exit.o)
 .bss           0x00000000        0x0 d:/program files (x86)/gnu tools arm embedded/5.4 2016q3/bin/../lib/gcc/arm-none-eabi/5.4.1/../../../../arm-none-eabi/lib/armv7-m\libnosys.a(_exit.o)
 .text._exit    0x00000000        0x4 d:/program files (x86)/gnu tools arm embedded/5.4 2016q3/bin/../lib/gcc/arm-none-eabi/5.4.1/../../../../arm-none-eabi/lib/armv7-m\libnosys.a(_exit.o)
 .debug_frame   0x00000000       0x20 d:/program files (x86)/gnu tools arm embedded/5.4 2016q3/bin/../lib/gcc/arm-none-eabi/5.4.1/../../../../arm-none-eabi/lib/armv7-m\libnosys.a(_exit.o)
 .ARM.attributes
                0x00000000       0x2d d:/program files (x86)/gnu tools arm embedded/5.4 2016q3/bin/../lib/gcc/arm-none-eabi/5.4.1/../../../../arm-none-eabi/lib/armv7-m\libnosys.a(_exit.o)
 .text          0x00000000        0x0 d:/program files (x86)/gnu tools arm embedded/5.4 2016q3/bin/../lib/gcc/arm-none-eabi/5.4.1/armv7-m/crtend.o
 .data          0x00000000        0x0 d:/program files (x86)/gnu tools arm embedded/5.4 2016q3/bin/../lib/gcc/arm-none-eabi/5.4.1/armv7-m/crtend.o
 .bss           0x00000000        0x0 d:/program files (x86)/gnu tools arm embedded/5.4 2016q3/bin/../lib/gcc/arm-none-eabi/5.4.1/armv7-m/crtend.o
 .eh_frame      0x00000000        0x4 d:/program files (x86)/gnu tools arm embedded/5.4 2016q3/bin/../lib/gcc/arm-none-eabi/5.4.1/armv7-m/crtend.o
 .jcr           0x00000000        0x4 d:/program files (x86)/gnu tools arm embedded/5.4 2016q3/bin/../lib/gcc/arm-none-eabi/5.4.1/armv7-m/crtend.o
 .ARM.attributes
                0x00000000       0x2d d:/program files (x86)/gnu tools arm embedded/5.4 2016q3/bin/../lib/gcc/arm-none-eabi/5.4.1/armv7-m/crtend.o
 .text          0x00000000        0x0 d:/program files (x86)/gnu tools arm embedded/5.4 2016q3/bin/../lib/gcc/arm-none-eabi/5.4.1/armv7-m/crtn.o
 .data          0x00000000        0x0 d:/program files (x86)/gnu tools arm embedded/5.4 2016q3/bin/../lib/gcc/arm-none-eabi/5.4.1/armv7-m/crtn.o
 .bss           0x00000000        0x0 d:/program files (x86)/gnu tools arm embedded/5.4 2016q3/bin/../lib/gcc/arm-none-eabi/5.4.1/armv7-m/crtn.o

Memory Configuration

Name             Origin             Length             Attributes
RAM              0x20000000         0x00005000         xrw
FLASH            0x08000000         0x00020000         xr
*default*        0x00000000         0xffffffff

Linker script and memory map

LOAD d:/program files (x86)/gnu tools arm embedded/5.4 2016q3/bin/../lib/gcc/arm-none-eabi/5.4.1/armv7-m/crti.o
LOAD d:/program files (x86)/gnu tools arm embedded/5.4 2016q3/bin/../lib/gcc/arm-none-eabi/5.4.1/armv7-m/crtbegin.o
LOAD d:/program files (x86)/gnu tools arm embedded/5.4 2016q3/bin/../lib/gcc/arm-none-eabi/5.4.1/../../../../arm-none-eabi/lib/armv7-m/crt0.o
LOAD CMakeFiles/PWM.elf.dir/CORE/Src/core_cm3.c.obj
LOAD CMakeFiles/PWM.elf.dir/HARDWARE/Src/adc.c.obj
LOAD CMakeFiles/PWM.elf.dir/HARDWARE/Src/beep.c.obj
LOAD CMakeFiles/PWM.elf.dir/HARDWARE/Src/dht11.c.obj
LOAD CMakeFiles/PWM.elf.dir/HARDWARE/Src/exti.c.obj
LOAD CMakeFiles/PWM.elf.dir/HARDWARE/Src/key.c.obj
LOAD CMakeFiles/PWM.elf.dir/HARDWARE/Src/led.c.obj
LOAD CMakeFiles/PWM.elf.dir/HARDWARE/Src/light.c.obj
LOAD CMakeFiles/PWM.elf.dir/HARDWARE/Src/pwm.c.obj
LOAD CMakeFiles/PWM.elf.dir/HARDWARE/Src/rtc.c.obj
LOAD CMakeFiles/PWM.elf.dir/HARDWARE/Src/soil.c.obj
LOAD CMakeFiles/PWM.elf.dir/HARDWARE/Src/spi.c.obj
LOAD CMakeFiles/PWM.elf.dir/HARDWARE/Src/timer.c.obj
LOAD CMakeFiles/PWM.elf.dir/HARDWARE/Src/w25qxx.c.obj
LOAD CMakeFiles/PWM.elf.dir/OLED/Src/oled.c.obj
LOAD CMakeFiles/PWM.elf.dir/STM32F10x_FWLib/Src/misc.c.obj
LOAD CMakeFiles/PWM.elf.dir/STM32F10x_FWLib/Src/stm32f10x_adc.c.obj
LOAD CMakeFiles/PWM.elf.dir/STM32F10x_FWLib/Src/stm32f10x_bkp.c.obj
LOAD CMakeFiles/PWM.elf.dir/STM32F10x_FWLib/Src/stm32f10x_can.c.obj
LOAD CMakeFiles/PWM.elf.dir/STM32F10x_FWLib/Src/stm32f10x_cec.c.obj
LOAD CMakeFiles/PWM.elf.dir/STM32F10x_FWLib/Src/stm32f10x_crc.c.obj
LOAD CMakeFiles/PWM.elf.dir/STM32F10x_FWLib/Src/stm32f10x_dac.c.obj
LOAD CMakeFiles/PWM.elf.dir/STM32F10x_FWLib/Src/stm32f10x_dbgmcu.c.obj
LOAD CMakeFiles/PWM.elf.dir/STM32F10x_FWLib/Src/stm32f10x_dma.c.obj
LOAD CMakeFiles/PWM.elf.dir/STM32F10x_FWLib/Src/stm32f10x_exti.c.obj
LOAD CMakeFiles/PWM.elf.dir/STM32F10x_FWLib/Src/stm32f10x_flash.c.obj
LOAD CMakeFiles/PWM.elf.dir/STM32F10x_FWLib/Src/stm32f10x_fsmc.c.obj
LOAD CMakeFiles/PWM.elf.dir/STM32F10x_FWLib/Src/stm32f10x_gpio.c.obj
LOAD CMakeFiles/PWM.elf.dir/STM32F10x_FWLib/Src/stm32f10x_i2c.c.obj
LOAD CMakeFiles/PWM.elf.dir/STM32F10x_FWLib/Src/stm32f10x_iwdg.c.obj
LOAD CMakeFiles/PWM.elf.dir/STM32F10x_FWLib/Src/stm32f10x_pwr.c.obj
LOAD CMakeFiles/PWM.elf.dir/STM32F10x_FWLib/Src/stm32f10x_rcc.c.obj
LOAD CMakeFiles/PWM.elf.dir/STM32F10x_FWLib/Src/stm32f10x_rtc.c.obj
LOAD CMakeFiles/PWM.elf.dir/STM32F10x_FWLib/Src/stm32f10x_sdio.c.obj
LOAD CMakeFiles/PWM.elf.dir/STM32F10x_FWLib/Src/stm32f10x_spi.c.obj
LOAD CMakeFiles/PWM.elf.dir/STM32F10x_FWLib/Src/stm32f10x_tim.c.obj
LOAD CMakeFiles/PWM.elf.dir/STM32F10x_FWLib/Src/stm32f10x_usart.c.obj
LOAD CMakeFiles/PWM.elf.dir/STM32F10x_FWLib/Src/stm32f10x_wwdg.c.obj
LOAD CMakeFiles/PWM.elf.dir/SYSTEM/Src/delay.c.obj
LOAD CMakeFiles/PWM.elf.dir/SYSTEM/Src/sys.c.obj
LOAD CMakeFiles/PWM.elf.dir/SYSTEM/Src/usart.c.obj
LOAD CMakeFiles/PWM.elf.dir/Startup/startup_stm32f103rbtx.s.obj
LOAD CMakeFiles/PWM.elf.dir/USER/Src/main.c.obj
LOAD CMakeFiles/PWM.elf.dir/USER/Src/stm32f10x_it.c.obj
LOAD CMakeFiles/PWM.elf.dir/USER/Src/system_stm32f10x.c.obj
START GROUP
LOAD d:/program files (x86)/gnu tools arm embedded/5.4 2016q3/bin/../lib/gcc/arm-none-eabi/5.4.1/armv7-m\libgcc.a
LOAD d:/program files (x86)/gnu tools arm embedded/5.4 2016q3/bin/../lib/gcc/arm-none-eabi/5.4.1/../../../../arm-none-eabi/lib/armv7-m\libg_nano.a
LOAD d:/program files (x86)/gnu tools arm embedded/5.4 2016q3/bin/../lib/gcc/arm-none-eabi/5.4.1/../../../../arm-none-eabi/lib/armv7-m\libc_nano.a
END GROUP
START GROUP
LOAD d:/program files (x86)/gnu tools arm embedded/5.4 2016q3/bin/../lib/gcc/arm-none-eabi/5.4.1/armv7-m\libgcc.a
LOAD d:/program files (x86)/gnu tools arm embedded/5.4 2016q3/bin/../lib/gcc/arm-none-eabi/5.4.1/../../../../arm-none-eabi/lib/armv7-m\libc_nano.a
LOAD d:/program files (x86)/gnu tools arm embedded/5.4 2016q3/bin/../lib/gcc/arm-none-eabi/5.4.1/../../../../arm-none-eabi/lib/armv7-m\libnosys.a
END GROUP
START GROUP
LOAD d:/program files (x86)/gnu tools arm embedded/5.4 2016q3/bin/../lib/gcc/arm-none-eabi/5.4.1/armv7-m\libgcc.a
LOAD d:/program files (x86)/gnu tools arm embedded/5.4 2016q3/bin/../lib/gcc/arm-none-eabi/5.4.1/../../../../arm-none-eabi/lib/armv7-m\libc_nano.a
LOAD d:/program files (x86)/gnu tools arm embedded/5.4 2016q3/bin/../lib/gcc/arm-none-eabi/5.4.1/../../../../arm-none-eabi/lib/armv7-m\libnosys.a
END GROUP
LOAD d:/program files (x86)/gnu tools arm embedded/5.4 2016q3/bin/../lib/gcc/arm-none-eabi/5.4.1/armv7-m/crtend.o
LOAD d:/program files (x86)/gnu tools arm embedded/5.4 2016q3/bin/../lib/gcc/arm-none-eabi/5.4.1/armv7-m/crtn.o
                0x20005000                _estack = (ORIGIN (RAM) + LENGTH (RAM))
                0x00000200                _Min_Heap_Size = 0x200
                0x00000400                _Min_Stack_Size = 0x400

.isr_vector     0x08000000      0x10c
                0x08000000                . = ALIGN (0x4)
 *(.isr_vector)
 .isr_vector    0x08000000      0x10c CMakeFiles/PWM.elf.dir/Startup/startup_stm32f103rbtx.s.obj
                0x08000000                g_pfnVectors
                0x0800010c                . = ALIGN (0x4)

.text           0x08000110     0x58fc
                0x08000110                . = ALIGN (0x4)
 *(.text)
 .text          0x08000110       0x5c d:/program files (x86)/gnu tools arm embedded/5.4 2016q3/bin/../lib/gcc/arm-none-eabi/5.4.1/armv7-m/crtbegin.o
 .text          0x0800016c      0x370 d:/program files (x86)/gnu tools arm embedded/5.4 2016q3/bin/../lib/gcc/arm-none-eabi/5.4.1/armv7-m\libgcc.a(_arm_addsubdf3.o)
                0x0800016c                __aeabi_drsub
                0x08000174                __aeabi_dsub
                0x08000174                __subdf3
                0x08000178                __aeabi_dadd
                0x08000178                __adddf3
                0x080003f0                __floatunsidf
                0x080003f0                __aeabi_ui2d
                0x08000410                __floatsidf
                0x08000410                __aeabi_i2d
                0x08000434                __aeabi_f2d
                0x08000434                __extendsfdf2
                0x08000470                __floatundidf
                0x08000470                __aeabi_ul2d
                0x08000480                __floatdidf
                0x08000480                __aeabi_l2d
 .text          0x080004dc      0x424 d:/program files (x86)/gnu tools arm embedded/5.4 2016q3/bin/../lib/gcc/arm-none-eabi/5.4.1/armv7-m\libgcc.a(_arm_muldivdf3.o)
                0x080004dc                __aeabi_dmul
                0x080004dc                __muldf3
                0x08000730                __divdf3
                0x08000730                __aeabi_ddiv
 .text          0x08000900       0xa0 d:/program files (x86)/gnu tools arm embedded/5.4 2016q3/bin/../lib/gcc/arm-none-eabi/5.4.1/armv7-m\libgcc.a(_arm_truncdfsf2.o)
                0x08000900                __truncdfsf2
                0x08000900                __aeabi_d2f
 .text          0x080009a0      0x21c d:/program files (x86)/gnu tools arm embedded/5.4 2016q3/bin/../lib/gcc/arm-none-eabi/5.4.1/armv7-m\libgcc.a(_arm_addsubsf3.o)
                0x080009a0                __aeabi_frsub
                0x080009a8                __subsf3
                0x080009a8                __aeabi_fsub
                0x080009ac                __aeabi_fadd
                0x080009ac                __addsf3
                0x08000b0c                __aeabi_ui2f
                0x08000b0c                __floatunsisf
                0x08000b14                __aeabi_i2f
                0x08000b14                __floatsisf
                0x08000b30                __aeabi_ul2f
                0x08000b30                __floatundisf
                0x08000b40                __aeabi_l2f
                0x08000b40                __floatdisf
 .text          0x08000bbc      0x2a0 d:/program files (x86)/gnu tools arm embedded/5.4 2016q3/bin/../lib/gcc/arm-none-eabi/5.4.1/armv7-m\libgcc.a(_arm_muldivsf3.o)
                0x08000bbc                __mulsf3
                0x08000bbc                __aeabi_fmul
                0x08000d24                __aeabi_fdiv
                0x08000d24                __divsf3
 .text          0x08000e5c       0x40 d:/program files (x86)/gnu tools arm embedded/5.4 2016q3/bin/../lib/gcc/arm-none-eabi/5.4.1/armv7-m\libgcc.a(_arm_fixunssfsi.o)
                0x08000e5c                __fixunssfsi
                0x08000e5c                __aeabi_f2uiz
 .text          0x08000e9c       0x10 d:/program files (x86)/gnu tools arm embedded/5.4 2016q3/bin/../lib/gcc/arm-none-eabi/5.4.1/../../../../arm-none-eabi/lib/armv7-m\libg_nano.a(lib_a-strlen.o)
                0x08000e9c                strlen
 .text          0x08000eac      0x110 d:/program files (x86)/gnu tools arm embedded/5.4 2016q3/bin/../lib/gcc/arm-none-eabi/5.4.1/armv7-m\libgcc.a(_arm_cmpdf2.o)
                0x08000eac                __gtdf2
                0x08000eac                __gedf2
                0x08000eb4                __ltdf2
                0x08000eb4                __ledf2
                0x08000ebc                __nedf2
                0x08000ebc                __eqdf2
                0x08000ebc                __cmpdf2
                0x08000f38                __aeabi_cdrcmple
                0x08000f48                __aeabi_cdcmpeq
                0x08000f48                __aeabi_cdcmple
                0x08000f58                __aeabi_dcmpeq
                0x08000f6c                __aeabi_dcmplt
                0x08000f80                __aeabi_dcmple
                0x08000f94                __aeabi_dcmpge
                0x08000fa8                __aeabi_dcmpgt
 .text          0x08000fbc       0x2c d:/program files (x86)/gnu tools arm embedded/5.4 2016q3/bin/../lib/gcc/arm-none-eabi/5.4.1/armv7-m\libgcc.a(_arm_unorddf2.o)
                0x08000fbc                __unorddf2
                0x08000fbc                __aeabi_dcmpun
 .text          0x08000fe8       0x50 d:/program files (x86)/gnu tools arm embedded/5.4 2016q3/bin/../lib/gcc/arm-none-eabi/5.4.1/armv7-m\libgcc.a(_arm_fixdfsi.o)
                0x08000fe8                __aeabi_d2iz
                0x08000fe8                __fixdfsi
 *(.text*)
 .text.Adc_Init
                0x08001038       0xa0 CMakeFiles/PWM.elf.dir/HARDWARE/Src/adc.c.obj
                0x08001038                Adc_Init
 .text.Get_Adc  0x080010d8       0x30 CMakeFiles/PWM.elf.dir/HARDWARE/Src/adc.c.obj
                0x080010d8                Get_Adc
 .text.Get_Adc_Average
                0x08001108       0x2c CMakeFiles/PWM.elf.dir/HARDWARE/Src/adc.c.obj
                0x08001108                Get_Adc_Average
 .text.beep_init
                0x08001134       0x3c CMakeFiles/PWM.elf.dir/HARDWARE/Src/beep.c.obj
                0x08001134                beep_init
 .text.DHT11_Rst
                0x08001170       0x34 CMakeFiles/PWM.elf.dir/HARDWARE/Src/dht11.c.obj
                0x08001170                DHT11_Rst
 .text.DHT11_Check
                0x080011a4       0x60 CMakeFiles/PWM.elf.dir/HARDWARE/Src/dht11.c.obj
                0x080011a4                DHT11_Check
 .text.DHT11_Read_Bit
                0x08001204       0x50 CMakeFiles/PWM.elf.dir/HARDWARE/Src/dht11.c.obj
                0x08001204                DHT11_Read_Bit
 .text.DHT11_Read_Byte
                0x08001254       0x20 CMakeFiles/PWM.elf.dir/HARDWARE/Src/dht11.c.obj
                0x08001254                DHT11_Read_Byte
 .text.DHT11_Read_Data
                0x08001274       0x58 CMakeFiles/PWM.elf.dir/HARDWARE/Src/dht11.c.obj
                0x08001274                DHT11_Read_Data
 .text.DHT11_Init
                0x080012cc       0x44 CMakeFiles/PWM.elf.dir/HARDWARE/Src/dht11.c.obj
                0x080012cc                DHT11_Init
 .text.EXTI0_IRQHandler
                0x08001310       0x40 CMakeFiles/PWM.elf.dir/HARDWARE/Src/exti.c.obj
                0x08001310                EXTI0_IRQHandler
 .text.EXTI2_IRQHandler
                0x08001350       0x24 CMakeFiles/PWM.elf.dir/HARDWARE/Src/exti.c.obj
                0x08001350                EXTI2_IRQHandler
 .text.EXTI9_5_IRQHandler
                0x08001374       0x44 CMakeFiles/PWM.elf.dir/HARDWARE/Src/exti.c.obj
                0x08001374                EXTI9_5_IRQHandler
 .text.key_init
                0x080013b8       0x5c CMakeFiles/PWM.elf.dir/HARDWARE/Src/key.c.obj
                0x080013b8                key_init
 .text.led_init
                0x08001414       0x48 CMakeFiles/PWM.elf.dir/HARDWARE/Src/led.c.obj
                0x08001414                led_init
 .text.TIM2_PWM_Init
                0x0800145c       0xac CMakeFiles/PWM.elf.dir/HARDWARE/Src/pwm.c.obj
                0x0800145c                TIM2_PWM_Init
 .text.RGB_PWM2
                0x08001508       0xc4 CMakeFiles/PWM.elf.dir/HARDWARE/Src/pwm.c.obj
                0x08001508                RGB_PWM2
 .text.RTC_NVIC_Config
                0x080015cc       0x28 CMakeFiles/PWM.elf.dir/HARDWARE/Src/rtc.c.obj
 .text.Is_Leap_Year
                0x080015f4       0x40 CMakeFiles/PWM.elf.dir/HARDWARE/Src/rtc.c.obj
                0x080015f4                Is_Leap_Year
 .text.RTC_Set  0x08001634       0xcc CMakeFiles/PWM.elf.dir/HARDWARE/Src/rtc.c.obj
                0x08001634                RTC_Set
 .text.RTC_Get_Week
                0x08001700       0x78 CMakeFiles/PWM.elf.dir/HARDWARE/Src/rtc.c.obj
                0x08001700                RTC_Get_Week
 .text.RTC_Get  0x08001778       0xf4 CMakeFiles/PWM.elf.dir/HARDWARE/Src/rtc.c.obj
                0x08001778                RTC_Get
 .text.RTC_Init
                0x0800186c       0xd8 CMakeFiles/PWM.elf.dir/HARDWARE/Src/rtc.c.obj
                0x0800186c                RTC_Init
 .text.RTC_IRQHandler
                0x08001944       0x54 CMakeFiles/PWM.elf.dir/HARDWARE/Src/rtc.c.obj
                0x08001944                RTC_IRQHandler
 .text.SPI2_ReadWriteByte
                0x08001998       0x54 CMakeFiles/PWM.elf.dir/HARDWARE/Src/spi.c.obj
                0x08001998                SPI2_ReadWriteByte
 .text.SPI2_Init
                0x080019ec       0x94 CMakeFiles/PWM.elf.dir/HARDWARE/Src/spi.c.obj
                0x080019ec                SPI2_Init
 .text.SPI2_SetSpeed
                0x08001a80       0x28 CMakeFiles/PWM.elf.dir/HARDWARE/Src/spi.c.obj
                0x08001a80                SPI2_SetSpeed
 .text.TIM3_Int_Init
                0x08001aa8       0x64 CMakeFiles/PWM.elf.dir/HARDWARE/Src/timer.c.obj
                0x08001aa8                TIM3_Int_Init
 .text.TIM3_IRQHandler
                0x08001b0c       0x50 CMakeFiles/PWM.elf.dir/HARDWARE/Src/timer.c.obj
                0x08001b0c                TIM3_IRQHandler
 .text.TIM2_IRQHandler
                0x08001b5c       0x2c CMakeFiles/PWM.elf.dir/HARDWARE/Src/timer.c.obj
                0x08001b5c                TIM2_IRQHandler
 .text.W25QXX_ReadID
                0x08001b88       0x40 CMakeFiles/PWM.elf.dir/HARDWARE/Src/w25qxx.c.obj
                0x08001b88                W25QXX_ReadID
 .text.W25QXX_Init
                0x08001bc8       0x5c CMakeFiles/PWM.elf.dir/HARDWARE/Src/w25qxx.c.obj
                0x08001bc8                W25QXX_Init
 .text.OLED_IIC_Start
                0x08001c24       0x1c CMakeFiles/PWM.elf.dir/OLED/Src/oled.c.obj
 .text.OLED_IIC_Stop
                0x08001c40       0x18 CMakeFiles/PWM.elf.dir/OLED/Src/oled.c.obj
 .text.IIC_Wait_Ack
                0x08001c58       0x34 CMakeFiles/PWM.elf.dir/OLED/Src/oled.c.obj
 .text.Write_IIC_Byte
                0x08001c8c       0x50 CMakeFiles/PWM.elf.dir/OLED/Src/oled.c.obj
 .text.Write_IIC_Data
                0x08001cdc       0x20 CMakeFiles/PWM.elf.dir/OLED/Src/oled.c.obj
 .text.Write_IIC_Command
                0x08001cfc       0x20 CMakeFiles/PWM.elf.dir/OLED/Src/oled.c.obj
 .text.OLED_GPIO_Init
                0x08001d1c       0x58 CMakeFiles/PWM.elf.dir/OLED/Src/oled.c.obj
                0x08001d1c                OLED_GPIO_Init
 .text.OLED_WR_Byte
                0x08001d74       0x10 CMakeFiles/PWM.elf.dir/OLED/Src/oled.c.obj
                0x08001d74                OLED_WR_Byte
 .text.OLED_Set_Pos
                0x08001d84       0x28 CMakeFiles/PWM.elf.dir/OLED/Src/oled.c.obj
                0x08001d84                OLED_Set_Pos
 .text.OLED_Clear
                0x08001dac       0x44 CMakeFiles/PWM.elf.dir/OLED/Src/oled.c.obj
                0x08001dac                OLED_Clear
 .text.OLED_ShowChar
                0x08001df0       0x64 CMakeFiles/PWM.elf.dir/OLED/Src/oled.c.obj
                0x08001df0                OLED_ShowChar
 .text.oled_pow
                0x08001e54       0x18 CMakeFiles/PWM.elf.dir/OLED/Src/oled.c.obj
                0x08001e54                oled_pow
 .text.OLED_ShowNum
                0x08001e6c       0x7c CMakeFiles/PWM.elf.dir/OLED/Src/oled.c.obj
                0x08001e6c                OLED_ShowNum
 .text.OLED_ShowString
                0x08001ee8       0x30 CMakeFiles/PWM.elf.dir/OLED/Src/oled.c.obj
                0x08001ee8                OLED_ShowString
 .text.OLED_Init
                0x08001f18       0xdc CMakeFiles/PWM.elf.dir/OLED/Src/oled.c.obj
                0x08001f18                OLED_Init
 .text.NVIC_Init
                0x08001ff4       0x64 CMakeFiles/PWM.elf.dir/STM32F10x_FWLib/Src/misc.c.obj
                0x08001ff4                NVIC_Init
 .text.SysTick_CLKSourceConfig
                0x08002058       0x20 CMakeFiles/PWM.elf.dir/STM32F10x_FWLib/Src/misc.c.obj
                0x08002058                SysTick_CLKSourceConfig
 .text.ADC_DeInit
                0x08002078       0x64 CMakeFiles/PWM.elf.dir/STM32F10x_FWLib/Src/stm32f10x_adc.c.obj
                0x08002078                ADC_DeInit
 .text.ADC_Init
                0x080020dc       0x48 CMakeFiles/PWM.elf.dir/STM32F10x_FWLib/Src/stm32f10x_adc.c.obj
                0x080020dc                ADC_Init
 .text.ADC_Cmd  0x08002124       0x18 CMakeFiles/PWM.elf.dir/STM32F10x_FWLib/Src/stm32f10x_adc.c.obj
                0x08002124                ADC_Cmd
 .text.ADC_ResetCalibration
                0x0800213c        0xc CMakeFiles/PWM.elf.dir/STM32F10x_FWLib/Src/stm32f10x_adc.c.obj
                0x0800213c                ADC_ResetCalibration
 .text.ADC_GetResetCalibrationStatus
                0x08002148       0x10 CMakeFiles/PWM.elf.dir/STM32F10x_FWLib/Src/stm32f10x_adc.c.obj
                0x08002148                ADC_GetResetCalibrationStatus
 .text.ADC_StartCalibration
                0x08002158        0xc CMakeFiles/PWM.elf.dir/STM32F10x_FWLib/Src/stm32f10x_adc.c.obj
                0x08002158                ADC_StartCalibration
 .text.ADC_GetCalibrationStatus
                0x08002164       0x10 CMakeFiles/PWM.elf.dir/STM32F10x_FWLib/Src/stm32f10x_adc.c.obj
                0x08002164                ADC_GetCalibrationStatus
 .text.ADC_SoftwareStartConvCmd
                0x08002174       0x18 CMakeFiles/PWM.elf.dir/STM32F10x_FWLib/Src/stm32f10x_adc.c.obj
                0x08002174                ADC_SoftwareStartConvCmd
 .text.ADC_RegularChannelConfig
                0x0800218c       0x8c CMakeFiles/PWM.elf.dir/STM32F10x_FWLib/Src/stm32f10x_adc.c.obj
                0x0800218c                ADC_RegularChannelConfig
 .text.ADC_GetConversionValue
                0x08002218        0x8 CMakeFiles/PWM.elf.dir/STM32F10x_FWLib/Src/stm32f10x_adc.c.obj
                0x08002218                ADC_GetConversionValue
 .text.ADC_GetFlagStatus
                0x08002220       0x10 CMakeFiles/PWM.elf.dir/STM32F10x_FWLib/Src/stm32f10x_adc.c.obj
                0x08002220                ADC_GetFlagStatus
 .text.BKP_DeInit
                0x08002230       0x10 CMakeFiles/PWM.elf.dir/STM32F10x_FWLib/Src/stm32f10x_bkp.c.obj
                0x08002230                BKP_DeInit
 .text.BKP_WriteBackupRegister
                0x08002240       0x1c CMakeFiles/PWM.elf.dir/STM32F10x_FWLib/Src/stm32f10x_bkp.c.obj
                0x08002240                BKP_WriteBackupRegister
 .text.BKP_ReadBackupRegister
                0x0800225c       0x20 CMakeFiles/PWM.elf.dir/STM32F10x_FWLib/Src/stm32f10x_bkp.c.obj
                0x0800225c                BKP_ReadBackupRegister
 .text.EXTI_ClearITPendingBit
                0x0800227c        0xc CMakeFiles/PWM.elf.dir/STM32F10x_FWLib/Src/stm32f10x_exti.c.obj
                0x0800227c                EXTI_ClearITPendingBit
 .text.GPIO_Init
                0x08002288       0x9c CMakeFiles/PWM.elf.dir/STM32F10x_FWLib/Src/stm32f10x_gpio.c.obj
                0x08002288                GPIO_Init
 .text.GPIO_ReadInputDataBit
                0x08002324       0x10 CMakeFiles/PWM.elf.dir/STM32F10x_FWLib/Src/stm32f10x_gpio.c.obj
                0x08002324                GPIO_ReadInputDataBit
 .text.GPIO_SetBits
                0x08002334        0x4 CMakeFiles/PWM.elf.dir/STM32F10x_FWLib/Src/stm32f10x_gpio.c.obj
                0x08002334                GPIO_SetBits
 .text.PWR_BackupAccessCmd
                0x08002338        0xc CMakeFiles/PWM.elf.dir/STM32F10x_FWLib/Src/stm32f10x_pwr.c.obj
                0x08002338                PWR_BackupAccessCmd
 .text.RCC_ADCCLKConfig
                0x08002344       0x14 CMakeFiles/PWM.elf.dir/STM32F10x_FWLib/Src/stm32f10x_rcc.c.obj
                0x08002344                RCC_ADCCLKConfig
 .text.RCC_LSEConfig
                0x08002358       0x28 CMakeFiles/PWM.elf.dir/STM32F10x_FWLib/Src/stm32f10x_rcc.c.obj
                0x08002358                RCC_LSEConfig
 .text.RCC_RTCCLKConfig
                0x08002380       0x10 CMakeFiles/PWM.elf.dir/STM32F10x_FWLib/Src/stm32f10x_rcc.c.obj
                0x08002380                RCC_RTCCLKConfig
 .text.RCC_RTCCLKCmd
                0x08002390        0xc CMakeFiles/PWM.elf.dir/STM32F10x_FWLib/Src/stm32f10x_rcc.c.obj
                0x08002390                RCC_RTCCLKCmd
 .text.RCC_GetClocksFreq
                0x0800239c       0xbc CMakeFiles/PWM.elf.dir/STM32F10x_FWLib/Src/stm32f10x_rcc.c.obj
                0x0800239c                RCC_GetClocksFreq
 .text.RCC_APB2PeriphClockCmd
                0x08002458       0x1c CMakeFiles/PWM.elf.dir/STM32F10x_FWLib/Src/stm32f10x_rcc.c.obj
                0x08002458                RCC_APB2PeriphClockCmd
 .text.RCC_APB1PeriphClockCmd
                0x08002474       0x1c CMakeFiles/PWM.elf.dir/STM32F10x_FWLib/Src/stm32f10x_rcc.c.obj
                0x08002474                RCC_APB1PeriphClockCmd
 .text.RCC_APB2PeriphResetCmd
                0x08002490       0x1c CMakeFiles/PWM.elf.dir/STM32F10x_FWLib/Src/stm32f10x_rcc.c.obj
                0x08002490                RCC_APB2PeriphResetCmd
 .text.RCC_BackupResetCmd
                0x080024ac        0xc CMakeFiles/PWM.elf.dir/STM32F10x_FWLib/Src/stm32f10x_rcc.c.obj
                0x080024ac                RCC_BackupResetCmd
 .text.RCC_GetFlagStatus
                0x080024b8       0x34 CMakeFiles/PWM.elf.dir/STM32F10x_FWLib/Src/stm32f10x_rcc.c.obj
                0x080024b8                RCC_GetFlagStatus
 .text.RTC_ITConfig
                0x080024ec       0x20 CMakeFiles/PWM.elf.dir/STM32F10x_FWLib/Src/stm32f10x_rtc.c.obj
                0x080024ec                RTC_ITConfig
 .text.RTC_EnterConfigMode
                0x0800250c       0x14 CMakeFiles/PWM.elf.dir/STM32F10x_FWLib/Src/stm32f10x_rtc.c.obj
                0x0800250c                RTC_EnterConfigMode
 .text.RTC_ExitConfigMode
                0x08002520       0x14 CMakeFiles/PWM.elf.dir/STM32F10x_FWLib/Src/stm32f10x_rtc.c.obj
                0x08002520                RTC_ExitConfigMode
 .text.RTC_GetCounter
                0x08002534       0x28 CMakeFiles/PWM.elf.dir/STM32F10x_FWLib/Src/stm32f10x_rtc.c.obj
                0x08002534                RTC_GetCounter
 .text.RTC_SetCounter
                0x0800255c       0x1c CMakeFiles/PWM.elf.dir/STM32F10x_FWLib/Src/stm32f10x_rtc.c.obj
                0x0800255c                RTC_SetCounter
 .text.RTC_SetPrescaler
                0x08002578       0x20 CMakeFiles/PWM.elf.dir/STM32F10x_FWLib/Src/stm32f10x_rtc.c.obj
                0x08002578                RTC_SetPrescaler
 .text.RTC_WaitForLastTask
                0x08002598       0x14 CMakeFiles/PWM.elf.dir/STM32F10x_FWLib/Src/stm32f10x_rtc.c.obj
                0x08002598                RTC_WaitForLastTask
 .text.RTC_WaitForSynchro
                0x080025ac       0x24 CMakeFiles/PWM.elf.dir/STM32F10x_FWLib/Src/stm32f10x_rtc.c.obj
                0x080025ac                RTC_WaitForSynchro
 .text.RTC_GetITStatus
                0x080025d0       0x20 CMakeFiles/PWM.elf.dir/STM32F10x_FWLib/Src/stm32f10x_rtc.c.obj
                0x080025d0                RTC_GetITStatus
 .text.RTC_ClearITPendingBit
                0x080025f0       0x14 CMakeFiles/PWM.elf.dir/STM32F10x_FWLib/Src/stm32f10x_rtc.c.obj
                0x080025f0                RTC_ClearITPendingBit
 .text.SPI_Init
                0x08002604       0x4c CMakeFiles/PWM.elf.dir/STM32F10x_FWLib/Src/stm32f10x_spi.c.obj
                0x08002604                SPI_Init
 .text.SPI_Cmd  0x08002650       0x1c CMakeFiles/PWM.elf.dir/STM32F10x_FWLib/Src/stm32f10x_spi.c.obj
                0x08002650                SPI_Cmd
 .text.SPI_I2S_SendData
                0x0800266c        0x4 CMakeFiles/PWM.elf.dir/STM32F10x_FWLib/Src/stm32f10x_spi.c.obj
                0x0800266c                SPI_I2S_SendData
 .text.SPI_I2S_ReceiveData
                0x08002670        0x8 CMakeFiles/PWM.elf.dir/STM32F10x_FWLib/Src/stm32f10x_spi.c.obj
                0x08002670                SPI_I2S_ReceiveData
 .text.SPI_I2S_GetFlagStatus
                0x08002678       0x10 CMakeFiles/PWM.elf.dir/STM32F10x_FWLib/Src/stm32f10x_spi.c.obj
                0x08002678                SPI_I2S_GetFlagStatus
 .text.TIM_TimeBaseInit
                0x08002688       0x94 CMakeFiles/PWM.elf.dir/STM32F10x_FWLib/Src/stm32f10x_tim.c.obj
                0x08002688                TIM_TimeBaseInit
 .text.TIM_OC2Init
                0x0800271c       0x88 CMakeFiles/PWM.elf.dir/STM32F10x_FWLib/Src/stm32f10x_tim.c.obj
                0x0800271c                TIM_OC2Init
 .text.TIM_OC3Init
                0x080027a4       0x84 CMakeFiles/PWM.elf.dir/STM32F10x_FWLib/Src/stm32f10x_tim.c.obj
                0x080027a4                TIM_OC3Init
 .text.TIM_OC4Init
                0x08002828       0x68 CMakeFiles/PWM.elf.dir/STM32F10x_FWLib/Src/stm32f10x_tim.c.obj
                0x08002828                TIM_OC4Init
 .text.TIM_Cmd  0x08002890       0x1c CMakeFiles/PWM.elf.dir/STM32F10x_FWLib/Src/stm32f10x_tim.c.obj
                0x08002890                TIM_Cmd
 .text.TIM_ITConfig
                0x080028ac       0x18 CMakeFiles/PWM.elf.dir/STM32F10x_FWLib/Src/stm32f10x_tim.c.obj
                0x080028ac                TIM_ITConfig
 .text.TIM_OC2PolarityConfig
                0x080028c4       0x14 CMakeFiles/PWM.elf.dir/STM32F10x_FWLib/Src/stm32f10x_tim.c.obj
                0x080028c4                TIM_OC2PolarityConfig
 .text.TIM_OC3PolarityConfig
                0x080028d8       0x14 CMakeFiles/PWM.elf.dir/STM32F10x_FWLib/Src/stm32f10x_tim.c.obj
                0x080028d8                TIM_OC3PolarityConfig
 .text.TIM_OC4PolarityConfig
                0x080028ec       0x14 CMakeFiles/PWM.elf.dir/STM32F10x_FWLib/Src/stm32f10x_tim.c.obj
                0x080028ec                TIM_OC4PolarityConfig
 .text.TIM_SetCompare2
                0x08002900        0x4 CMakeFiles/PWM.elf.dir/STM32F10x_FWLib/Src/stm32f10x_tim.c.obj
                0x08002900                TIM_SetCompare2
 .text.TIM_SetCompare3
                0x08002904        0x4 CMakeFiles/PWM.elf.dir/STM32F10x_FWLib/Src/stm32f10x_tim.c.obj
                0x08002904                TIM_SetCompare3
 .text.TIM_SetCompare4
                0x08002908        0x8 CMakeFiles/PWM.elf.dir/STM32F10x_FWLib/Src/stm32f10x_tim.c.obj
                0x08002908                TIM_SetCompare4
 .text.TIM_GetITStatus
                0x08002910       0x18 CMakeFiles/PWM.elf.dir/STM32F10x_FWLib/Src/stm32f10x_tim.c.obj
                0x08002910                TIM_GetITStatus
 .text.TIM_ClearITPendingBit
                0x08002928        0x8 CMakeFiles/PWM.elf.dir/STM32F10x_FWLib/Src/stm32f10x_tim.c.obj
                0x08002928                TIM_ClearITPendingBit
 .text.USART_Init
                0x08002930       0xc8 CMakeFiles/PWM.elf.dir/STM32F10x_FWLib/Src/stm32f10x_usart.c.obj
                0x08002930                USART_Init
 .text.USART_Cmd
                0x080029f8       0x1c CMakeFiles/PWM.elf.dir/STM32F10x_FWLib/Src/stm32f10x_usart.c.obj
                0x080029f8                USART_Cmd
 .text.USART_ITConfig
                0x08002a14       0x38 CMakeFiles/PWM.elf.dir/STM32F10x_FWLib/Src/stm32f10x_usart.c.obj
                0x08002a14                USART_ITConfig
 .text.USART_SendData
                0x08002a4c        0x8 CMakeFiles/PWM.elf.dir/STM32F10x_FWLib/Src/stm32f10x_usart.c.obj
                0x08002a4c                USART_SendData
 .text.USART_ReceiveData
                0x08002a54        0x8 CMakeFiles/PWM.elf.dir/STM32F10x_FWLib/Src/stm32f10x_usart.c.obj
                0x08002a54                USART_ReceiveData
 .text.USART_GetFlagStatus
                0x08002a5c       0x10 CMakeFiles/PWM.elf.dir/STM32F10x_FWLib/Src/stm32f10x_usart.c.obj
                0x08002a5c                USART_GetFlagStatus
 .text.delay_init
                0x08002a6c       0x3c CMakeFiles/PWM.elf.dir/SYSTEM/Src/delay.c.obj
                0x08002a6c                delay_init
 .text.delay_us
                0x08002aa8       0x3c CMakeFiles/PWM.elf.dir/SYSTEM/Src/delay.c.obj
                0x08002aa8                delay_us
 .text.delay_ms
                0x08002ae4       0x3c CMakeFiles/PWM.elf.dir/SYSTEM/Src/delay.c.obj
                0x08002ae4                delay_ms
 .text.PrintfInit
                0x08002b20       0x20 CMakeFiles/PWM.elf.dir/SYSTEM/Src/usart.c.obj
                0x08002b20                PrintfInit
 .text.uart_init
                0x08002b40       0xa4 CMakeFiles/PWM.elf.dir/SYSTEM/Src/usart.c.obj
                0x08002b40                uart_init
 .text._isatty  0x08002be4        0xc CMakeFiles/PWM.elf.dir/SYSTEM/Src/usart.c.obj
                0x08002be4                _isatty
 .text._write   0x08002bf0       0x4c CMakeFiles/PWM.elf.dir/SYSTEM/Src/usart.c.obj
                0x08002bf0                _write
 .text._close   0x08002c3c       0x10 CMakeFiles/PWM.elf.dir/SYSTEM/Src/usart.c.obj
                0x08002c3c                _close
 .text._lseek   0x08002c4c        0x8 CMakeFiles/PWM.elf.dir/SYSTEM/Src/usart.c.obj
                0x08002c4c                _lseek
 .text._read    0x08002c54       0x28 CMakeFiles/PWM.elf.dir/SYSTEM/Src/usart.c.obj
                0x08002c54                _read
 .text.Reset_Handler
                0x08002c7c       0x48 CMakeFiles/PWM.elf.dir/Startup/startup_stm32f103rbtx.s.obj
                0x08002c7c                Reset_Handler
 .text.Default_Handler
                0x08002cc4        0x2 CMakeFiles/PWM.elf.dir/Startup/startup_stm32f103rbtx.s.obj
                0x08002cc4                RTC_Alarm_IRQHandler
                0x08002cc4                TIM1_CC_IRQHandler
                0x08002cc4                PVD_IRQHandler
                0x08002cc4                EXTI3_IRQHandler
                0x08002cc4                I2C2_EV_IRQHandler
                0x08002cc4                ADC1_2_IRQHandler
                0x08002cc4                SPI1_IRQHandler
                0x08002cc4                TAMPER_IRQHandler
                0x08002cc4                DMA1_Channel4_IRQHandler
                0x08002cc4                USART3_IRQHandler
                0x08002cc4                DMA1_Channel7_IRQHandler
                0x08002cc4                CAN1_RX1_IRQHandler
                0x08002cc4                TIM4_IRQHandler
                0x08002cc4                I2C1_EV_IRQHandler
                0x08002cc4                DMA1_Channel6_IRQHandler
                0x08002cc4                RCC_IRQHandler
                0x08002cc4                TIM1_TRG_COM_IRQHandler
                0x08002cc4                DMA1_Channel1_IRQHandler
                0x08002cc4                Default_Handler
                0x08002cc4                EXTI15_10_IRQHandler
                0x08002cc4                SPI2_IRQHandler
                0x08002cc4                DMA1_Channel5_IRQHandler
                0x08002cc4                EXTI4_IRQHandler
                0x08002cc4                USB_LP_CAN1_RX0_IRQHandler
                0x08002cc4                USB_HP_CAN1_TX_IRQHandler
                0x08002cc4                DMA1_Channel3_IRQHandler
                0x08002cc4                TIM1_UP_IRQHandler
                0x08002cc4                WWDG_IRQHandler
                0x08002cc4                TIM1_BRK_IRQHandler
                0x08002cc4                EXTI1_IRQHandler
                0x08002cc4                USART2_IRQHandler
                0x08002cc4                I2C2_ER_IRQHandler
                0x08002cc4                DMA1_Channel2_IRQHandler
                0x08002cc4                CAN1_SCE_IRQHandler
                0x08002cc4                FLASH_IRQHandler
                0x08002cc4                USART1_IRQHandler
                0x08002cc4                I2C1_ER_IRQHandler
                0x08002cc4                USBWakeUp_IRQHandler
 *fill*         0x08002cc6        0x2 
 .text.main     0x08002cc8      0x2f8 CMakeFiles/PWM.elf.dir/USER/Src/main.c.obj
                0x08002cc8                main
 .text.NMI_Handler
                0x08002fc0        0x4 CMakeFiles/PWM.elf.dir/USER/Src/stm32f10x_it.c.obj
                0x08002fc0                NMI_Handler
 .text.HardFault_Handler
                0x08002fc4        0x4 CMakeFiles/PWM.elf.dir/USER/Src/stm32f10x_it.c.obj
                0x08002fc4                HardFault_Handler
 .text.MemManage_Handler
                0x08002fc8        0x4 CMakeFiles/PWM.elf.dir/USER/Src/stm32f10x_it.c.obj
                0x08002fc8                MemManage_Handler
 .text.BusFault_Handler
                0x08002fcc        0x4 CMakeFiles/PWM.elf.dir/USER/Src/stm32f10x_it.c.obj
                0x08002fcc                BusFault_Handler
 .text.UsageFault_Handler
                0x08002fd0        0x4 CMakeFiles/PWM.elf.dir/USER/Src/stm32f10x_it.c.obj
                0x08002fd0                UsageFault_Handler
 .text.SVC_Handler
                0x08002fd4        0x4 CMakeFiles/PWM.elf.dir/USER/Src/stm32f10x_it.c.obj
                0x08002fd4                SVC_Handler
 .text.DebugMon_Handler
                0x08002fd8        0x4 CMakeFiles/PWM.elf.dir/USER/Src/stm32f10x_it.c.obj
                0x08002fd8                DebugMon_Handler
 .text.PendSV_Handler
                0x08002fdc        0x4 CMakeFiles/PWM.elf.dir/USER/Src/stm32f10x_it.c.obj
                0x08002fdc                PendSV_Handler
 .text.SysTick_Handler
                0x08002fe0        0x4 CMakeFiles/PWM.elf.dir/USER/Src/stm32f10x_it.c.obj
                0x08002fe0                SysTick_Handler
 .text.SetSysClockTo72
                0x08002fe4       0xc4 CMakeFiles/PWM.elf.dir/USER/Src/system_stm32f10x.c.obj
 .text.SetSysClock
                0x080030a8        0x8 CMakeFiles/PWM.elf.dir/USER/Src/system_stm32f10x.c.obj
 .text.SystemInit
                0x080030b0       0x50 CMakeFiles/PWM.elf.dir/USER/Src/system_stm32f10x.c.obj
                0x080030b0                SystemInit
 .text.__libc_init_array
                0x08003100       0x4c d:/program files (x86)/gnu tools arm embedded/5.4 2016q3/bin/../lib/gcc/arm-none-eabi/5.4.1/../../../../arm-none-eabi/lib/armv7-m\libg_nano.a(lib_a-init.o)
                0x08003100                __libc_init_array
 .text.memset   0x0800314c       0x10 d:/program files (x86)/gnu tools arm embedded/5.4 2016q3/bin/../lib/gcc/arm-none-eabi/5.4.1/../../../../arm-none-eabi/lib/armv7-m\libg_nano.a(lib_a-memset.o)
                0x0800314c                memset
 .text.__cvt    0x0800315c       0xc0 d:/program files (x86)/gnu tools arm embedded/5.4 2016q3/bin/../lib/gcc/arm-none-eabi/5.4.1/../../../../arm-none-eabi/lib/armv7-m\libg_nano.a(lib_a-nano-vfprintf_float.o)
                0x0800315c                __cvt
 .text.__exponent
                0x0800321c       0x62 d:/program files (x86)/gnu tools arm embedded/5.4 2016q3/bin/../lib/gcc/arm-none-eabi/5.4.1/../../../../arm-none-eabi/lib/armv7-m\libg_nano.a(lib_a-nano-vfprintf_float.o)
                0x0800321c                __exponent
 *fill*         0x0800327e        0x2 
 .text._printf_float
                0x08003280      0x488 d:/program files (x86)/gnu tools arm embedded/5.4 2016q3/bin/../lib/gcc/arm-none-eabi/5.4.1/../../../../arm-none-eabi/lib/armv7-m\libg_nano.a(lib_a-nano-vfprintf_float.o)
                0x08003280                _printf_float
 .text._printf_common
                0x08003708       0xec d:/program files (x86)/gnu tools arm embedded/5.4 2016q3/bin/../lib/gcc/arm-none-eabi/5.4.1/../../../../arm-none-eabi/lib/armv7-m\libg_nano.a(lib_a-nano-vfprintf_i.o)
                0x08003708                _printf_common
 .text._printf_i
                0x080037f4      0x24c d:/program files (x86)/gnu tools arm embedded/5.4 2016q3/bin/../lib/gcc/arm-none-eabi/5.4.1/../../../../arm-none-eabi/lib/armv7-m\libg_nano.a(lib_a-nano-vfprintf_i.o)
                0x080037f4                _printf_i
 .text.printf   0x08003a40       0x30 d:/program files (x86)/gnu tools arm embedded/5.4 2016q3/bin/../lib/gcc/arm-none-eabi/5.4.1/../../../../arm-none-eabi/lib/armv7-m\libg_nano.a(lib_a-printf.o)
                0x08003a40                iprintf
                0x08003a40                printf
 .text._puts_r  0x08003a70       0xb4 d:/program files (x86)/gnu tools arm embedded/5.4 2016q3/bin/../lib/gcc/arm-none-eabi/5.4.1/../../../../arm-none-eabi/lib/armv7-m\libg_nano.a(lib_a-puts.o)
                0x08003a70                _puts_r
 .text.puts     0x08003b24       0x10 d:/program files (x86)/gnu tools arm embedded/5.4 2016q3/bin/../lib/gcc/arm-none-eabi/5.4.1/../../../../arm-none-eabi/lib/armv7-m\libg_nano.a(lib_a-puts.o)
                0x08003b24                puts
 .text.setvbuf  0x08003b34      0x154 d:/program files (x86)/gnu tools arm embedded/5.4 2016q3/bin/../lib/gcc/arm-none-eabi/5.4.1/../../../../arm-none-eabi/lib/armv7-m\libg_nano.a(lib_a-setvbuf.o)
                0x08003b34                setvbuf
 .text.__swbuf_r
                0x08003c88       0xa8 d:/program files (x86)/gnu tools arm embedded/5.4 2016q3/bin/../lib/gcc/arm-none-eabi/5.4.1/../../../../arm-none-eabi/lib/armv7-m\libg_nano.a(lib_a-wbuf.o)
                0x08003c88                __swbuf_r
 .text.__swsetup_r
                0x08003d30       0xdc d:/program files (x86)/gnu tools arm embedded/5.4 2016q3/bin/../lib/gcc/arm-none-eabi/5.4.1/../../../../arm-none-eabi/lib/armv7-m\libg_nano.a(lib_a-wsetup.o)
                0x08003d30                __swsetup_r
 .text.quorem   0x08003e0c      0x116 d:/program files (x86)/gnu tools arm embedded/5.4 2016q3/bin/../lib/gcc/arm-none-eabi/5.4.1/../../../../arm-none-eabi/lib/armv7-m\libg_nano.a(lib_a-dtoa.o)
 *fill*         0x08003f22        0x6 
 .text._dtoa_r  0x08003f28      0xb30 d:/program files (x86)/gnu tools arm embedded/5.4 2016q3/bin/../lib/gcc/arm-none-eabi/5.4.1/../../../../arm-none-eabi/lib/armv7-m\libg_nano.a(lib_a-dtoa.o)
                0x08003f28                _dtoa_r
 .text.__sflush_r
                0x08004a58      0x10c d:/program files (x86)/gnu tools arm embedded/5.4 2016q3/bin/../lib/gcc/arm-none-eabi/5.4.1/../../../../arm-none-eabi/lib/armv7-m\libg_nano.a(lib_a-fflush.o)
                0x08004a58                __sflush_r
 .text._fflush_r
                0x08004b64       0x54 d:/program files (x86)/gnu tools arm embedded/5.4 2016q3/bin/../lib/gcc/arm-none-eabi/5.4.1/../../../../arm-none-eabi/lib/armv7-m\libg_nano.a(lib_a-fflush.o)
                0x08004b64                _fflush_r
 .text._cleanup_r
                0x08004bb8        0xc d:/program files (x86)/gnu tools arm embedded/5.4 2016q3/bin/../lib/gcc/arm-none-eabi/5.4.1/../../../../arm-none-eabi/lib/armv7-m\libg_nano.a(lib_a-findfp.o)
                0x08004bb8                _cleanup_r
 .text.std.isra.0
                0x08004bc4       0x48 d:/program files (x86)/gnu tools arm embedded/5.4 2016q3/bin/../lib/gcc/arm-none-eabi/5.4.1/../../../../arm-none-eabi/lib/armv7-m\libg_nano.a(lib_a-findfp.o)
 .text.__sfmoreglue
                0x08004c0c       0x2c d:/program files (x86)/gnu tools arm embedded/5.4 2016q3/bin/../lib/gcc/arm-none-eabi/5.4.1/../../../../arm-none-eabi/lib/armv7-m\libg_nano.a(lib_a-findfp.o)
                0x08004c0c                __sfmoreglue
 .text.__sinit  0x08004c38       0x60 d:/program files (x86)/gnu tools arm embedded/5.4 2016q3/bin/../lib/gcc/arm-none-eabi/5.4.1/../../../../arm-none-eabi/lib/armv7-m\libg_nano.a(lib_a-findfp.o)
                0x08004c38                __sinit
 .text.__sfp    0x08004c98       0x78 d:/program files (x86)/gnu tools arm embedded/5.4 2016q3/bin/../lib/gcc/arm-none-eabi/5.4.1/../../../../arm-none-eabi/lib/armv7-m\libg_nano.a(lib_a-findfp.o)
                0x08004c98                __sfp
 .text._fwalk_reent
                0x08004d10       0x3c d:/program files (x86)/gnu tools arm embedded/5.4 2016q3/bin/../lib/gcc/arm-none-eabi/5.4.1/../../../../arm-none-eabi/lib/armv7-m\libg_nano.a(lib_a-fwalk.o)
                0x08004d10                _fwalk_reent
 .text._localeconv_r
                0x08004d4c       0x1c d:/program files (x86)/gnu tools arm embedded/5.4 2016q3/bin/../lib/gcc/arm-none-eabi/5.4.1/../../../../arm-none-eabi/lib/armv7-m\libg_nano.a(lib_a-localeconv.o)
                0x08004d4c                _localeconv_r
 .text.__swhatbuf_r
                0x08004d68       0x46 d:/program files (x86)/gnu tools arm embedded/5.4 2016q3/bin/../lib/gcc/arm-none-eabi/5.4.1/../../../../arm-none-eabi/lib/armv7-m\libg_nano.a(lib_a-makebuf.o)
                0x08004d68                __swhatbuf_r
 *fill*         0x08004dae        0x2 
 .text.__smakebuf_r
                0x08004db0       0x78 d:/program files (x86)/gnu tools arm embedded/5.4 2016q3/bin/../lib/gcc/arm-none-eabi/5.4.1/../../../../arm-none-eabi/lib/armv7-m\libg_nano.a(lib_a-makebuf.o)
                0x08004db0                __smakebuf_r
 .text.malloc   0x08004e28       0x10 d:/program files (x86)/gnu tools arm embedded/5.4 2016q3/bin/../lib/gcc/arm-none-eabi/5.4.1/../../../../arm-none-eabi/lib/armv7-m\libg_nano.a(lib_a-malloc.o)
                0x08004e28                malloc
 .text.memchr   0x08004e38       0x1c d:/program files (x86)/gnu tools arm embedded/5.4 2016q3/bin/../lib/gcc/arm-none-eabi/5.4.1/../../../../arm-none-eabi/lib/armv7-m\libg_nano.a(lib_a-memchr-stub.o)
                0x08004e38                memchr
 .text.memcpy   0x08004e54       0x16 d:/program files (x86)/gnu tools arm embedded/5.4 2016q3/bin/../lib/gcc/arm-none-eabi/5.4.1/../../../../arm-none-eabi/lib/armv7-m\libg_nano.a(lib_a-memcpy-stub.o)
                0x08004e54                memcpy
 .text._Balloc  0x08004e6a       0x6a d:/program files (x86)/gnu tools arm embedded/5.4 2016q3/bin/../lib/gcc/arm-none-eabi/5.4.1/../../../../arm-none-eabi/lib/armv7-m\libg_nano.a(lib_a-mprec.o)
                0x08004e6a                _Balloc
 .text._Bfree   0x08004ed4       0x2e d:/program files (x86)/gnu tools arm embedded/5.4 2016q3/bin/../lib/gcc/arm-none-eabi/5.4.1/../../../../arm-none-eabi/lib/armv7-m\libg_nano.a(lib_a-mprec.o)
                0x08004ed4                _Bfree
 .text.__multadd
                0x08004f02       0x76 d:/program files (x86)/gnu tools arm embedded/5.4 2016q3/bin/../lib/gcc/arm-none-eabi/5.4.1/../../../../arm-none-eabi/lib/armv7-m\libg_nano.a(lib_a-mprec.o)
                0x08004f02                __multadd
 .text.__hi0bits
                0x08004f78       0x40 d:/program files (x86)/gnu tools arm embedded/5.4 2016q3/bin/../lib/gcc/arm-none-eabi/5.4.1/../../../../arm-none-eabi/lib/armv7-m\libg_nano.a(lib_a-mprec.o)
                0x08004f78                __hi0bits
 .text.__lo0bits
                0x08004fb8       0x5a d:/program files (x86)/gnu tools arm embedded/5.4 2016q3/bin/../lib/gcc/arm-none-eabi/5.4.1/../../../../arm-none-eabi/lib/armv7-m\libg_nano.a(lib_a-mprec.o)
                0x08004fb8                __lo0bits
 .text.__i2b    0x08005012       0x12 d:/program files (x86)/gnu tools arm embedded/5.4 2016q3/bin/../lib/gcc/arm-none-eabi/5.4.1/../../../../arm-none-eabi/lib/armv7-m\libg_nano.a(lib_a-mprec.o)
                0x08005012                __i2b
 .text.__multiply
                0x08005024      0x120 d:/program files (x86)/gnu tools arm embedded/5.4 2016q3/bin/../lib/gcc/arm-none-eabi/5.4.1/../../../../arm-none-eabi/lib/armv7-m\libg_nano.a(lib_a-mprec.o)
                0x08005024                __multiply
 .text.__pow5mult
                0x08005144       0x9c d:/program files (x86)/gnu tools arm embedded/5.4 2016q3/bin/../lib/gcc/arm-none-eabi/5.4.1/../../../../arm-none-eabi/lib/armv7-m\libg_nano.a(lib_a-mprec.o)
                0x08005144                __pow5mult
 .text.__lshift
                0x080051e0       0xa2 d:/program files (x86)/gnu tools arm embedded/5.4 2016q3/bin/../lib/gcc/arm-none-eabi/5.4.1/../../../../arm-none-eabi/lib/armv7-m\libg_nano.a(lib_a-mprec.o)
                0x080051e0                __lshift
 .text.__mcmp   0x08005282       0x38 d:/program files (x86)/gnu tools arm embedded/5.4 2016q3/bin/../lib/gcc/arm-none-eabi/5.4.1/../../../../arm-none-eabi/lib/armv7-m\libg_nano.a(lib_a-mprec.o)
                0x08005282                __mcmp
 .text.__mdiff  0x080052ba       0xbe d:/program files (x86)/gnu tools arm embedded/5.4 2016q3/bin/../lib/gcc/arm-none-eabi/5.4.1/../../../../arm-none-eabi/lib/armv7-m\libg_nano.a(lib_a-mprec.o)
                0x080052ba                __mdiff
 .text.__d2b    0x08005378       0x9c d:/program files (x86)/gnu tools arm embedded/5.4 2016q3/bin/../lib/gcc/arm-none-eabi/5.4.1/../../../../arm-none-eabi/lib/armv7-m\libg_nano.a(lib_a-mprec.o)
                0x08005378                __d2b
 .text._calloc_r
                0x08005414       0x1c d:/program files (x86)/gnu tools arm embedded/5.4 2016q3/bin/../lib/gcc/arm-none-eabi/5.4.1/../../../../arm-none-eabi/lib/armv7-m\libg_nano.a(lib_a-nano-callocr.o)
                0x08005414                _calloc_r
 .text._free_r  0x08005430       0x98 d:/program files (x86)/gnu tools arm embedded/5.4 2016q3/bin/../lib/gcc/arm-none-eabi/5.4.1/../../../../arm-none-eabi/lib/armv7-m\libg_nano.a(lib_a-nano-freer.o)
                0x08005430                _free_r
 .text._malloc_r
                0x080054c8       0xbc d:/program files (x86)/gnu tools arm embedded/5.4 2016q3/bin/../lib/gcc/arm-none-eabi/5.4.1/../../../../arm-none-eabi/lib/armv7-m\libg_nano.a(lib_a-nano-mallocr.o)
                0x080054c8                _malloc_r
 .text.__sfputc_r
                0x08005584       0x2c d:/program files (x86)/gnu tools arm embedded/5.4 2016q3/bin/../lib/gcc/arm-none-eabi/5.4.1/../../../../arm-none-eabi/lib/armv7-m\libg_nano.a(lib_a-nano-vfprintf.o)
 .text.__sfputs_r
                0x080055b0       0x24 d:/program files (x86)/gnu tools arm embedded/5.4 2016q3/bin/../lib/gcc/arm-none-eabi/5.4.1/../../../../arm-none-eabi/lib/armv7-m\libg_nano.a(lib_a-nano-vfprintf.o)
                0x080055b0                __sfputs_r
 .text._vfprintf_r
                0x080055d4      0x238 d:/program files (x86)/gnu tools arm embedded/5.4 2016q3/bin/../lib/gcc/arm-none-eabi/5.4.1/../../../../arm-none-eabi/lib/armv7-m\libg_nano.a(lib_a-nano-vfprintf.o)
                0x080055d4                _vfprintf_r
                0x080055d4                _vfiprintf_r
 .text._sbrk_r  0x0800580c       0x20 d:/program files (x86)/gnu tools arm embedded/5.4 2016q3/bin/../lib/gcc/arm-none-eabi/5.4.1/../../../../arm-none-eabi/lib/armv7-m\libg_nano.a(lib_a-sbrkr.o)
                0x0800580c                _sbrk_r
 .text.__sread  0x0800582c       0x22 d:/program files (x86)/gnu tools arm embedded/5.4 2016q3/bin/../lib/gcc/arm-none-eabi/5.4.1/../../../../arm-none-eabi/lib/armv7-m\libg_nano.a(lib_a-stdio.o)
                0x0800582c                __sread
 .text.__swrite
                0x0800584e       0x38 d:/program files (x86)/gnu tools arm embedded/5.4 2016q3/bin/../lib/gcc/arm-none-eabi/5.4.1/../../../../arm-none-eabi/lib/armv7-m\libg_nano.a(lib_a-stdio.o)
                0x0800584e                __swrite
 .text.__sseek  0x08005886       0x24 d:/program files (x86)/gnu tools arm embedded/5.4 2016q3/bin/../lib/gcc/arm-none-eabi/5.4.1/../../../../arm-none-eabi/lib/armv7-m\libg_nano.a(lib_a-stdio.o)
                0x08005886                __sseek
 .text.__sclose
                0x080058aa        0x8 d:/program files (x86)/gnu tools arm embedded/5.4 2016q3/bin/../lib/gcc/arm-none-eabi/5.4.1/../../../../arm-none-eabi/lib/armv7-m\libg_nano.a(lib_a-stdio.o)
                0x080058aa                __sclose
 *fill*         0x080058b2        0x2 
 .text._write_r
                0x080058b4       0x24 d:/program files (x86)/gnu tools arm embedded/5.4 2016q3/bin/../lib/gcc/arm-none-eabi/5.4.1/../../../../arm-none-eabi/lib/armv7-m\libg_nano.a(lib_a-writer.o)
                0x080058b4                _write_r
 .text._close_r
                0x080058d8       0x20 d:/program files (x86)/gnu tools arm embedded/5.4 2016q3/bin/../lib/gcc/arm-none-eabi/5.4.1/../../../../arm-none-eabi/lib/armv7-m\libg_nano.a(lib_a-closer.o)
                0x080058d8                _close_r
 .text._fstat_r
                0x080058f8       0x24 d:/program files (x86)/gnu tools arm embedded/5.4 2016q3/bin/../lib/gcc/arm-none-eabi/5.4.1/../../../../arm-none-eabi/lib/armv7-m\libg_nano.a(lib_a-fstatr.o)
                0x080058f8                _fstat_r
 .text._isatty_r
                0x0800591c       0x20 d:/program files (x86)/gnu tools arm embedded/5.4 2016q3/bin/../lib/gcc/arm-none-eabi/5.4.1/../../../../arm-none-eabi/lib/armv7-m\libg_nano.a(lib_a-isattyr.o)
                0x0800591c                _isatty_r
 .text._lseek_r
                0x0800593c       0x24 d:/program files (x86)/gnu tools arm embedded/5.4 2016q3/bin/../lib/gcc/arm-none-eabi/5.4.1/../../../../arm-none-eabi/lib/armv7-m\libg_nano.a(lib_a-lseekr.o)
                0x0800593c                _lseek_r
 .text.__ascii_mbtowc
                0x08005960       0x24 d:/program files (x86)/gnu tools arm embedded/5.4 2016q3/bin/../lib/gcc/arm-none-eabi/5.4.1/../../../../arm-none-eabi/lib/armv7-m\libg_nano.a(lib_a-mbtowc_r.o)
                0x08005960                __ascii_mbtowc
 .text.__malloc_lock
                0x08005984        0x2 d:/program files (x86)/gnu tools arm embedded/5.4 2016q3/bin/../lib/gcc/arm-none-eabi/5.4.1/../../../../arm-none-eabi/lib/armv7-m\libg_nano.a(lib_a-mlock.o)
                0x08005984                __malloc_lock
 .text.__malloc_unlock
                0x08005986        0x2 d:/program files (x86)/gnu tools arm embedded/5.4 2016q3/bin/../lib/gcc/arm-none-eabi/5.4.1/../../../../arm-none-eabi/lib/armv7-m\libg_nano.a(lib_a-mlock.o)
                0x08005986                __malloc_unlock
 .text._read_r  0x08005988       0x24 d:/program files (x86)/gnu tools arm embedded/5.4 2016q3/bin/../lib/gcc/arm-none-eabi/5.4.1/../../../../arm-none-eabi/lib/armv7-m\libg_nano.a(lib_a-readr.o)
                0x08005988                _read_r
 .text.__ascii_wctomb
                0x080059ac       0x1a d:/program files (x86)/gnu tools arm embedded/5.4 2016q3/bin/../lib/gcc/arm-none-eabi/5.4.1/../../../../arm-none-eabi/lib/armv7-m\libg_nano.a(lib_a-wctomb_r.o)
                0x080059ac                __ascii_wctomb
 *fill*         0x080059c6        0x2 
 .text._fstat   0x080059c8       0x10 d:/program files (x86)/gnu tools arm embedded/5.4 2016q3/bin/../lib/gcc/arm-none-eabi/5.4.1/../../../../arm-none-eabi/lib/armv7-m\libnosys.a(fstat.o)
                0x080059c8                _fstat
 .text._sbrk    0x080059d8       0x1c d:/program files (x86)/gnu tools arm embedded/5.4 2016q3/bin/../lib/gcc/arm-none-eabi/5.4.1/../../../../arm-none-eabi/lib/armv7-m\libnosys.a(sbrk.o)
                0x080059d8                _sbrk
 *(.glue_7)
 .glue_7        0x080059f4        0x0 linker stubs
 *(.glue_7t)
 .glue_7t       0x080059f4        0x0 linker stubs
 *(.eh_frame)
 .eh_frame      0x080059f4        0x0 d:/program files (x86)/gnu tools arm embedded/5.4 2016q3/bin/../lib/gcc/arm-none-eabi/5.4.1/armv7-m/crtbegin.o
 *(.init)
 .init          0x080059f4        0x4 d:/program files (x86)/gnu tools arm embedded/5.4 2016q3/bin/../lib/gcc/arm-none-eabi/5.4.1/armv7-m/crti.o
                0x080059f4                _init
 .init          0x080059f8        0x8 d:/program files (x86)/gnu tools arm embedded/5.4 2016q3/bin/../lib/gcc/arm-none-eabi/5.4.1/armv7-m/crtn.o
 *(.fini)
 .fini          0x08005a00        0x4 d:/program files (x86)/gnu tools arm embedded/5.4 2016q3/bin/../lib/gcc/arm-none-eabi/5.4.1/armv7-m/crti.o
                0x08005a00                _fini
 .fini          0x08005a04        0x8 d:/program files (x86)/gnu tools arm embedded/5.4 2016q3/bin/../lib/gcc/arm-none-eabi/5.4.1/armv7-m/crtn.o
                0x08005a0c                . = ALIGN (0x4)
                0x08005a0c                _etext = .

.vfp11_veneer   0x08005a0c        0x0
 .vfp11_veneer  0x08005a0c        0x0 linker stubs

.v4_bx          0x08005a0c        0x0
 .v4_bx         0x08005a0c        0x0 linker stubs

.iplt           0x08005a0c        0x0
 .iplt          0x08005a0c        0x0 d:/program files (x86)/gnu tools arm embedded/5.4 2016q3/bin/../lib/gcc/arm-none-eabi/5.4.1/armv7-m/crtbegin.o

.rodata         0x08005a10      0x9f0
                0x08005a10                . = ALIGN (0x4)
 *(.rodata)
 *(.rodata*)
 .rodata.mon_table
                0x08005a10        0xc CMakeFiles/PWM.elf.dir/HARDWARE/Src/rtc.c.obj
                0x08005a10                mon_table
 .rodata.table_week
                0x08005a1c        0xc CMakeFiles/PWM.elf.dir/HARDWARE/Src/rtc.c.obj
                0x08005a1c                table_week
 .rodata.str1.4
                0x08005a28       0x3e CMakeFiles/PWM.elf.dir/HARDWARE/Src/rtc.c.obj
 *fill*         0x08005a66        0x2 
 .rodata.str1.4
                0x08005a68       0x19 CMakeFiles/PWM.elf.dir/HARDWARE/Src/timer.c.obj
 *fill*         0x08005a81        0x3 
 .rodata.F8X16  0x08005a84      0x5f0 CMakeFiles/PWM.elf.dir/OLED/Src/oled.c.obj
                0x08005a84                F8X16
 .rodata.str1.4
                0x08006074       0xc8 CMakeFiles/PWM.elf.dir/USER/Src/main.c.obj
                                 0xc7 (size before relaxing)
 .rodata._global_impure_ptr
                0x0800613c        0x4 d:/program files (x86)/gnu tools arm embedded/5.4 2016q3/bin/../lib/gcc/arm-none-eabi/5.4.1/../../../../arm-none-eabi/lib/armv7-m\libg_nano.a(lib_a-impure.o)
                0x0800613c                _global_impure_ptr
 .rodata.str1.1
                0x08006140       0x12 d:/program files (x86)/gnu tools arm embedded/5.4 2016q3/bin/../lib/gcc/arm-none-eabi/5.4.1/../../../../arm-none-eabi/lib/armv7-m\libg_nano.a(lib_a-nano-vfprintf_float.o)
 .rodata.str1.1
                0x08006152       0x22 d:/program files (x86)/gnu tools arm embedded/5.4 2016q3/bin/../lib/gcc/arm-none-eabi/5.4.1/../../../../arm-none-eabi/lib/armv7-m\libg_nano.a(lib_a-nano-vfprintf_i.o)
 .rodata.str1.1
                0x08006174        0xd d:/program files (x86)/gnu tools arm embedded/5.4 2016q3/bin/../lib/gcc/arm-none-eabi/5.4.1/../../../../arm-none-eabi/lib/armv7-m\libg_nano.a(lib_a-dtoa.o)
                                  0xf (size before relaxing)
 *fill*         0x08006181        0x3 
 .rodata.__sf_fake_stdin
                0x08006184       0x20 d:/program files (x86)/gnu tools arm embedded/5.4 2016q3/bin/../lib/gcc/arm-none-eabi/5.4.1/../../../../arm-none-eabi/lib/armv7-m\libg_nano.a(lib_a-findfp.o)
                0x08006184                __sf_fake_stdin
 .rodata.__sf_fake_stdout
                0x080061a4       0x20 d:/program files (x86)/gnu tools arm embedded/5.4 2016q3/bin/../lib/gcc/arm-none-eabi/5.4.1/../../../../arm-none-eabi/lib/armv7-m\libg_nano.a(lib_a-findfp.o)
                0x080061a4                __sf_fake_stdout
 .rodata.__sf_fake_stderr
                0x080061c4       0x20 d:/program files (x86)/gnu tools arm embedded/5.4 2016q3/bin/../lib/gcc/arm-none-eabi/5.4.1/../../../../arm-none-eabi/lib/armv7-m\libg_nano.a(lib_a-findfp.o)
                0x080061c4                __sf_fake_stderr
 *fill*         0x080061e4        0x4 
 .rodata.__mprec_tens
                0x080061e8       0xc8 d:/program files (x86)/gnu tools arm embedded/5.4 2016q3/bin/../lib/gcc/arm-none-eabi/5.4.1/../../../../arm-none-eabi/lib/armv7-m\libg_nano.a(lib_a-mprec.o)
                0x080061e8                __mprec_tens
 .rodata.__mprec_bigtens
                0x080062b0       0x28 d:/program files (x86)/gnu tools arm embedded/5.4 2016q3/bin/../lib/gcc/arm-none-eabi/5.4.1/../../../../arm-none-eabi/lib/armv7-m\libg_nano.a(lib_a-mprec.o)
                0x080062b0                __mprec_bigtens
 .rodata.p05.6097
                0x080062d8        0xc d:/program files (x86)/gnu tools arm embedded/5.4 2016q3/bin/../lib/gcc/arm-none-eabi/5.4.1/../../../../arm-none-eabi/lib/armv7-m\libg_nano.a(lib_a-mprec.o)
 .rodata.str1.1
                0x080062e4       0x11 d:/program files (x86)/gnu tools arm embedded/5.4 2016q3/bin/../lib/gcc/arm-none-eabi/5.4.1/../../../../arm-none-eabi/lib/armv7-m\libg_nano.a(lib_a-nano-vfprintf.o)
 .rodata.str1.1
                0x080062f5        0xa d:/program files (x86)/gnu tools arm embedded/5.4 2016q3/bin/../lib/gcc/arm-none-eabi/5.4.1/../../../../arm-none-eabi/lib/armv7-m\libg_nano.a(lib_a-locale.o)
                                  0xb (size before relaxing)
 .rodata._ctype_
                0x080062ff      0x101 d:/program files (x86)/gnu tools arm embedded/5.4 2016q3/bin/../lib/gcc/arm-none-eabi/5.4.1/../../../../arm-none-eabi/lib/armv7-m\libg_nano.a(lib_a-ctype_.o)
                0x080062ff                _ctype_
                0x08006400                . = ALIGN (0x4)

.rel.dyn        0x08006400        0x0
 .rel.iplt      0x08006400        0x0 d:/program files (x86)/gnu tools arm embedded/5.4 2016q3/bin/../lib/gcc/arm-none-eabi/5.4.1/armv7-m/crtbegin.o

.ARM.extab      0x08006400        0x0
                0x08006400                . = ALIGN (0x4)
 *(.ARM.extab* .gnu.linkonce.armextab.*)
                0x08006400                . = ALIGN (0x4)

.ARM            0x08006400        0x0
                0x08006400                . = ALIGN (0x4)
                0x08006400                __exidx_start = .
 *(.ARM.exidx*)
                0x08006400                __exidx_end = .
                0x08006400                . = ALIGN (0x4)

.preinit_array  0x08006400        0x0
                0x08006400                . = ALIGN (0x4)
                0x08006400                PROVIDE (__preinit_array_start, .)
 *(.preinit_array*)
                0x08006400                PROVIDE (__preinit_array_end, .)
                0x08006400                . = ALIGN (0x4)

.init_array     0x08006400        0x4
                0x08006400                . = ALIGN (0x4)
                0x08006400                PROVIDE (__init_array_start, .)
 *(SORT(.init_array.*))
 *(.init_array*)
 .init_array    0x08006400        0x4 d:/program files (x86)/gnu tools arm embedded/5.4 2016q3/bin/../lib/gcc/arm-none-eabi/5.4.1/armv7-m/crtbegin.o
                0x08006404                PROVIDE (__init_array_end, .)
                0x08006404                . = ALIGN (0x4)

.fini_array     0x08006404        0x4
                0x08006404                . = ALIGN (0x4)
                [!provide]                PROVIDE (__fini_array_start, .)
 *(SORT(.fini_array.*))
 *(.fini_array*)
 .fini_array    0x08006404        0x4 d:/program files (x86)/gnu tools arm embedded/5.4 2016q3/bin/../lib/gcc/arm-none-eabi/5.4.1/armv7-m/crtbegin.o
                [!provide]                PROVIDE (__fini_array_end, .)
                0x08006408                . = ALIGN (0x4)
                0x08006408                _sidata = LOADADDR (.data)

.data           0x20000000      0x1f0 load address 0x08006408
                0x20000000                . = ALIGN (0x4)
                0x20000000                _sdata = .
 *(.data)
 *(.data*)
 .data.dirR     0x20000000        0x1 CMakeFiles/PWM.elf.dir/HARDWARE/Src/pwm.c.obj
                0x20000000                dirR
 *fill*         0x20000001        0x1 
 .data.ledR     0x20000002        0x2 CMakeFiles/PWM.elf.dir/HARDWARE/Src/pwm.c.obj
                0x20000002                ledR
 .data.degree   0x20000004        0x1 CMakeFiles/PWM.elf.dir/HARDWARE/Src/pwm.c.obj
                0x20000004                degree
 *fill*         0x20000005        0x1 
 .data.W25QXX_TYPE
                0x20000006        0x2 CMakeFiles/PWM.elf.dir/HARDWARE/Src/w25qxx.c.obj
                0x20000006                W25QXX_TYPE
 .data.ADCPrescTable
                0x20000008        0x4 CMakeFiles/PWM.elf.dir/STM32F10x_FWLib/Src/stm32f10x_rcc.c.obj
 .data.APBAHBPrescTable
                0x2000000c       0x10 CMakeFiles/PWM.elf.dir/STM32F10x_FWLib/Src/stm32f10x_rcc.c.obj
 .data.SystemCoreClock
                0x2000001c        0x4 CMakeFiles/PWM.elf.dir/USER/Src/system_stm32f10x.c.obj
                0x2000001c                SystemCoreClock
 .data.impure_data
                0x20000020       0x60 d:/program files (x86)/gnu tools arm embedded/5.4 2016q3/bin/../lib/gcc/arm-none-eabi/5.4.1/../../../../arm-none-eabi/lib/armv7-m\libg_nano.a(lib_a-impure.o)
 .data._impure_ptr
                0x20000080        0x4 d:/program files (x86)/gnu tools arm embedded/5.4 2016q3/bin/../lib/gcc/arm-none-eabi/5.4.1/../../../../arm-none-eabi/lib/armv7-m\libg_nano.a(lib_a-impure.o)
                0x20000080                _impure_ptr
 .data.__global_locale
                0x20000084      0x16c d:/program files (x86)/gnu tools arm embedded/5.4 2016q3/bin/../lib/gcc/arm-none-eabi/5.4.1/../../../../arm-none-eabi/lib/armv7-m\libg_nano.a(lib_a-locale.o)
                0x20000084                __global_locale
 *(.RamFunc)
 *(.RamFunc*)
                0x200001f0                . = ALIGN (0x4)
                0x200001f0                _edata = .

.jcr            0x200001f0        0x0 load address 0x080065f8
 .jcr           0x200001f0        0x0 d:/program files (x86)/gnu tools arm embedded/5.4 2016q3/bin/../lib/gcc/arm-none-eabi/5.4.1/armv7-m/crtbegin.o

.igot.plt       0x200001f0        0x0 load address 0x080065f8
 .igot.plt      0x200001f0        0x0 d:/program files (x86)/gnu tools arm embedded/5.4 2016q3/bin/../lib/gcc/arm-none-eabi/5.4.1/armv7-m/crtbegin.o
                0x200001f0                . = ALIGN (0x4)

.bss            0x200001f0       0x54 load address 0x080065f8
                0x200001f0                _sbss = .
                0x200001f0                __bss_start__ = _sbss
 *(.bss)
 .bss           0x200001f0       0x1c d:/program files (x86)/gnu tools arm embedded/5.4 2016q3/bin/../lib/gcc/arm-none-eabi/5.4.1/armv7-m/crtbegin.o
 *(.bss*)
 .bss.ledB      0x2000020c        0x2 CMakeFiles/PWM.elf.dir/HARDWARE/Src/pwm.c.obj
                0x2000020c                ledB
 .bss.ledG      0x2000020e        0x2 CMakeFiles/PWM.elf.dir/HARDWARE/Src/pwm.c.obj
                0x2000020e                ledG
 .bss.dirB      0x20000210        0x1 CMakeFiles/PWM.elf.dir/HARDWARE/Src/pwm.c.obj
                0x20000210                dirB
 .bss.dirG      0x20000211        0x1 CMakeFiles/PWM.elf.dir/HARDWARE/Src/pwm.c.obj
                0x20000211                dirG
 *fill*         0x20000212        0x2 
 .bss.calendar  0x20000214        0xa CMakeFiles/PWM.elf.dir/HARDWARE/Src/rtc.c.obj
                0x20000214                calendar
 .bss.daycnt.7632
                0x2000021e        0x2 CMakeFiles/PWM.elf.dir/HARDWARE/Src/rtc.c.obj
 .bss.fac_us    0x20000220        0x1 CMakeFiles/PWM.elf.dir/SYSTEM/Src/delay.c.obj
 *fill*         0x20000221        0x1 
 .bss.fac_ms    0x20000222        0x2 CMakeFiles/PWM.elf.dir/SYSTEM/Src/delay.c.obj
 .bss.G_uart    0x20000224        0x4 CMakeFiles/PWM.elf.dir/SYSTEM/Src/usart.c.obj
                0x20000224                G_uart
 .bss.temperature
                0x20000228        0x1 CMakeFiles/PWM.elf.dir/USER/Src/main.c.obj
                0x20000228                temperature
 .bss.t         0x20000229        0x1 CMakeFiles/PWM.elf.dir/USER/Src/main.c.obj
                0x20000229                t
 .bss.humidity  0x2000022a        0x1 CMakeFiles/PWM.elf.dir/USER/Src/main.c.obj
                0x2000022a                humidity
 *fill*         0x2000022b        0x1 
 .bss.temp      0x2000022c        0x4 CMakeFiles/PWM.elf.dir/USER/Src/main.c.obj
                0x2000022c                temp
 .bss.adc_x     0x20000230        0x2 CMakeFiles/PWM.elf.dir/USER/Src/main.c.obj
                0x20000230                adc_x
 *fill*         0x20000232        0x2 
 .bss.__malloc_sbrk_start
                0x20000234        0x4 d:/program files (x86)/gnu tools arm embedded/5.4 2016q3/bin/../lib/gcc/arm-none-eabi/5.4.1/../../../../arm-none-eabi/lib/armv7-m\libg_nano.a(lib_a-nano-mallocr.o)
                0x20000234                __malloc_sbrk_start
 .bss.__malloc_free_list
                0x20000238        0x4 d:/program files (x86)/gnu tools arm embedded/5.4 2016q3/bin/../lib/gcc/arm-none-eabi/5.4.1/../../../../arm-none-eabi/lib/armv7-m\libg_nano.a(lib_a-nano-mallocr.o)
                0x20000238                __malloc_free_list
 .bss.heap_end.4167
                0x2000023c        0x4 d:/program files (x86)/gnu tools arm embedded/5.4 2016q3/bin/../lib/gcc/arm-none-eabi/5.4.1/../../../../arm-none-eabi/lib/armv7-m\libnosys.a(sbrk.o)
 *(COMMON)
 COMMON         0x20000240        0x4 d:/program files (x86)/gnu tools arm embedded/5.4 2016q3/bin/../lib/gcc/arm-none-eabi/5.4.1/../../../../arm-none-eabi/lib/armv7-m\libg_nano.a(lib_a-reent.o)
                0x20000240                errno
                0x20000244                . = ALIGN (0x4)
                0x20000244                _ebss = .
                0x20000244                __bss_end__ = _ebss

._user_heap_stack
                0x20000244      0x604 load address 0x080065f8
                0x20000248                . = ALIGN (0x8)
 *fill*         0x20000244        0x4 
                0x20000248                PROVIDE (end, .)
                [!provide]                PROVIDE (_end, .)
                0x20000448                . = (. + _Min_Heap_Size)
 *fill*         0x20000248      0x200 
                0x20000848                . = (. + _Min_Stack_Size)
 *fill*         0x20000448      0x400 
                0x20000848                . = ALIGN (0x8)

/DISCARD/
 libc.a(*)
 libm.a(*)
 libgcc.a(*)

.ARM.attributes
                0x00000000       0x29
 *(.ARM.attributes)
 .ARM.attributes
                0x00000000       0x1d d:/program files (x86)/gnu tools arm embedded/5.4 2016q3/bin/../lib/gcc/arm-none-eabi/5.4.1/armv7-m/crti.o
 .ARM.attributes
                0x0000001d       0x2d d:/program files (x86)/gnu tools arm embedded/5.4 2016q3/bin/../lib/gcc/arm-none-eabi/5.4.1/armv7-m/crtbegin.o
 .ARM.attributes
                0x0000004a       0x33 CMakeFiles/PWM.elf.dir/HARDWARE/Src/adc.c.obj
 .ARM.attributes
                0x0000007d       0x33 CMakeFiles/PWM.elf.dir/HARDWARE/Src/beep.c.obj
 .ARM.attributes
                0x000000b0       0x33 CMakeFiles/PWM.elf.dir/HARDWARE/Src/dht11.c.obj
 .ARM.attributes
                0x000000e3       0x33 CMakeFiles/PWM.elf.dir/HARDWARE/Src/exti.c.obj
 .ARM.attributes
                0x00000116       0x33 CMakeFiles/PWM.elf.dir/HARDWARE/Src/key.c.obj
 .ARM.attributes
                0x00000149       0x33 CMakeFiles/PWM.elf.dir/HARDWARE/Src/led.c.obj
 .ARM.attributes
                0x0000017c       0x33 CMakeFiles/PWM.elf.dir/HARDWARE/Src/pwm.c.obj
 .ARM.attributes
                0x000001af       0x33 CMakeFiles/PWM.elf.dir/HARDWARE/Src/rtc.c.obj
 .ARM.attributes
                0x000001e2       0x33 CMakeFiles/PWM.elf.dir/HARDWARE/Src/spi.c.obj
 .ARM.attributes
                0x00000215       0x33 CMakeFiles/PWM.elf.dir/HARDWARE/Src/timer.c.obj
 .ARM.attributes
                0x00000248       0x33 CMakeFiles/PWM.elf.dir/HARDWARE/Src/w25qxx.c.obj
 .ARM.attributes
                0x0000027b       0x33 CMakeFiles/PWM.elf.dir/OLED/Src/oled.c.obj
 .ARM.attributes
                0x000002ae       0x33 CMakeFiles/PWM.elf.dir/STM32F10x_FWLib/Src/misc.c.obj
 .ARM.attributes
                0x000002e1       0x33 CMakeFiles/PWM.elf.dir/STM32F10x_FWLib/Src/stm32f10x_adc.c.obj
 .ARM.attributes
                0x00000314       0x33 CMakeFiles/PWM.elf.dir/STM32F10x_FWLib/Src/stm32f10x_bkp.c.obj
 .ARM.attributes
                0x00000347       0x33 CMakeFiles/PWM.elf.dir/STM32F10x_FWLib/Src/stm32f10x_exti.c.obj
 .ARM.attributes
                0x0000037a       0x33 CMakeFiles/PWM.elf.dir/STM32F10x_FWLib/Src/stm32f10x_gpio.c.obj
 .ARM.attributes
                0x000003ad       0x33 CMakeFiles/PWM.elf.dir/STM32F10x_FWLib/Src/stm32f10x_pwr.c.obj
 .ARM.attributes
                0x000003e0       0x33 CMakeFiles/PWM.elf.dir/STM32F10x_FWLib/Src/stm32f10x_rcc.c.obj
 .ARM.attributes
                0x00000413       0x33 CMakeFiles/PWM.elf.dir/STM32F10x_FWLib/Src/stm32f10x_rtc.c.obj
 .ARM.attributes
                0x00000446       0x33 CMakeFiles/PWM.elf.dir/STM32F10x_FWLib/Src/stm32f10x_spi.c.obj
 .ARM.attributes
                0x00000479       0x33 CMakeFiles/PWM.elf.dir/STM32F10x_FWLib/Src/stm32f10x_tim.c.obj
 .ARM.attributes
                0x000004ac       0x33 CMakeFiles/PWM.elf.dir/STM32F10x_FWLib/Src/stm32f10x_usart.c.obj
 .ARM.attributes
                0x000004df       0x33 CMakeFiles/PWM.elf.dir/SYSTEM/Src/delay.c.obj
 .ARM.attributes
                0x00000512       0x33 CMakeFiles/PWM.elf.dir/SYSTEM/Src/usart.c.obj
 .ARM.attributes
                0x00000545       0x21 CMakeFiles/PWM.elf.dir/Startup/startup_stm32f103rbtx.s.obj
 .ARM.attributes
                0x00000566       0x33 CMakeFiles/PWM.elf.dir/USER/Src/main.c.obj
 .ARM.attributes
                0x00000599       0x33 CMakeFiles/PWM.elf.dir/USER/Src/stm32f10x_it.c.obj
 .ARM.attributes
                0x000005cc       0x33 CMakeFiles/PWM.elf.dir/USER/Src/system_stm32f10x.c.obj
 .ARM.attributes
                0x000005ff       0x1d d:/program files (x86)/gnu tools arm embedded/5.4 2016q3/bin/../lib/gcc/arm-none-eabi/5.4.1/armv7-m\libgcc.a(_arm_addsubdf3.o)
 .ARM.attributes
                0x0000061c       0x1d d:/program files (x86)/gnu tools arm embedded/5.4 2016q3/bin/../lib/gcc/arm-none-eabi/5.4.1/armv7-m\libgcc.a(_arm_muldivdf3.o)
 .ARM.attributes
                0x00000639       0x1d d:/program files (x86)/gnu tools arm embedded/5.4 2016q3/bin/../lib/gcc/arm-none-eabi/5.4.1/armv7-m\libgcc.a(_arm_truncdfsf2.o)
 .ARM.attributes
                0x00000656       0x1d d:/program files (x86)/gnu tools arm embedded/5.4 2016q3/bin/../lib/gcc/arm-none-eabi/5.4.1/armv7-m\libgcc.a(_arm_addsubsf3.o)
 .ARM.attributes
                0x00000673       0x1d d:/program files (x86)/gnu tools arm embedded/5.4 2016q3/bin/../lib/gcc/arm-none-eabi/5.4.1/armv7-m\libgcc.a(_arm_muldivsf3.o)
 .ARM.attributes
                0x00000690       0x1d d:/program files (x86)/gnu tools arm embedded/5.4 2016q3/bin/../lib/gcc/arm-none-eabi/5.4.1/armv7-m\libgcc.a(_arm_fixunssfsi.o)
 .ARM.attributes
                0x000006ad       0x2d d:/program files (x86)/gnu tools arm embedded/5.4 2016q3/bin/../lib/gcc/arm-none-eabi/5.4.1/../../../../arm-none-eabi/lib/armv7-m\libg_nano.a(lib_a-impure.o)
 .ARM.attributes
                0x000006da       0x2d d:/program files (x86)/gnu tools arm embedded/5.4 2016q3/bin/../lib/gcc/arm-none-eabi/5.4.1/../../../../arm-none-eabi/lib/armv7-m\libg_nano.a(lib_a-init.o)
 .ARM.attributes
                0x00000707       0x2d d:/program files (x86)/gnu tools arm embedded/5.4 2016q3/bin/../lib/gcc/arm-none-eabi/5.4.1/../../../../arm-none-eabi/lib/armv7-m\libg_nano.a(lib_a-memset.o)
 .ARM.attributes
                0x00000734       0x2d d:/program files (x86)/gnu tools arm embedded/5.4 2016q3/bin/../lib/gcc/arm-none-eabi/5.4.1/../../../../arm-none-eabi/lib/armv7-m\libg_nano.a(lib_a-nano-vfprintf_float.o)
 .ARM.attributes
                0x00000761       0x2d d:/program files (x86)/gnu tools arm embedded/5.4 2016q3/bin/../lib/gcc/arm-none-eabi/5.4.1/../../../../arm-none-eabi/lib/armv7-m\libg_nano.a(lib_a-nano-vfprintf_i.o)
 .ARM.attributes
                0x0000078e       0x2d d:/program files (x86)/gnu tools arm embedded/5.4 2016q3/bin/../lib/gcc/arm-none-eabi/5.4.1/../../../../arm-none-eabi/lib/armv7-m\libg_nano.a(lib_a-printf.o)
 .ARM.attributes
                0x000007bb       0x2d d:/program files (x86)/gnu tools arm embedded/5.4 2016q3/bin/../lib/gcc/arm-none-eabi/5.4.1/../../../../arm-none-eabi/lib/armv7-m\libg_nano.a(lib_a-puts.o)
 .ARM.attributes
                0x000007e8       0x2d d:/program files (x86)/gnu tools arm embedded/5.4 2016q3/bin/../lib/gcc/arm-none-eabi/5.4.1/../../../../arm-none-eabi/lib/armv7-m\libg_nano.a(lib_a-setvbuf.o)
 .ARM.attributes
                0x00000815       0x17 d:/program files (x86)/gnu tools arm embedded/5.4 2016q3/bin/../lib/gcc/arm-none-eabi/5.4.1/../../../../arm-none-eabi/lib/armv7-m\libg_nano.a(lib_a-strlen.o)
 .ARM.attributes
                0x0000082c       0x2d d:/program files (x86)/gnu tools arm embedded/5.4 2016q3/bin/../lib/gcc/arm-none-eabi/5.4.1/../../../../arm-none-eabi/lib/armv7-m\libg_nano.a(lib_a-wbuf.o)
 .ARM.attributes
                0x00000859       0x2d d:/program files (x86)/gnu tools arm embedded/5.4 2016q3/bin/../lib/gcc/arm-none-eabi/5.4.1/../../../../arm-none-eabi/lib/armv7-m\libg_nano.a(lib_a-wsetup.o)
 .ARM.attributes
                0x00000886       0x2d d:/program files (x86)/gnu tools arm embedded/5.4 2016q3/bin/../lib/gcc/arm-none-eabi/5.4.1/../../../../arm-none-eabi/lib/armv7-m\libg_nano.a(lib_a-dtoa.o)
 .ARM.attributes
                0x000008b3       0x2d d:/program files (x86)/gnu tools arm embedded/5.4 2016q3/bin/../lib/gcc/arm-none-eabi/5.4.1/../../../../arm-none-eabi/lib/armv7-m\libg_nano.a(lib_a-fflush.o)
 .ARM.attributes
                0x000008e0       0x2d d:/program files (x86)/gnu tools arm embedded/5.4 2016q3/bin/../lib/gcc/arm-none-eabi/5.4.1/../../../../arm-none-eabi/lib/armv7-m\libg_nano.a(lib_a-findfp.o)
 .ARM.attributes
                0x0000090d       0x2d d:/program files (x86)/gnu tools arm embedded/5.4 2016q3/bin/../lib/gcc/arm-none-eabi/5.4.1/../../../../arm-none-eabi/lib/armv7-m\libg_nano.a(lib_a-fwalk.o)
 .ARM.attributes
                0x0000093a       0x2d d:/program files (x86)/gnu tools arm embedded/5.4 2016q3/bin/../lib/gcc/arm-none-eabi/5.4.1/../../../../arm-none-eabi/lib/armv7-m\libg_nano.a(lib_a-localeconv.o)
 .ARM.attributes
                0x00000967       0x2d d:/program files (x86)/gnu tools arm embedded/5.4 2016q3/bin/../lib/gcc/arm-none-eabi/5.4.1/../../../../arm-none-eabi/lib/armv7-m\libg_nano.a(lib_a-makebuf.o)
 .ARM.attributes
                0x00000994       0x2d d:/program files (x86)/gnu tools arm embedded/5.4 2016q3/bin/../lib/gcc/arm-none-eabi/5.4.1/../../../../arm-none-eabi/lib/armv7-m\libg_nano.a(lib_a-malloc.o)
 .ARM.attributes
                0x000009c1       0x2d d:/program files (x86)/gnu tools arm embedded/5.4 2016q3/bin/../lib/gcc/arm-none-eabi/5.4.1/../../../../arm-none-eabi/lib/armv7-m\libg_nano.a(lib_a-memchr-stub.o)
 .ARM.attributes
                0x000009ee       0x2d d:/program files (x86)/gnu tools arm embedded/5.4 2016q3/bin/../lib/gcc/arm-none-eabi/5.4.1/../../../../arm-none-eabi/lib/armv7-m\libg_nano.a(lib_a-memcpy-stub.o)
 .ARM.attributes
                0x00000a1b       0x2d d:/program files (x86)/gnu tools arm embedded/5.4 2016q3/bin/../lib/gcc/arm-none-eabi/5.4.1/../../../../arm-none-eabi/lib/armv7-m\libg_nano.a(lib_a-mprec.o)
 .ARM.attributes
                0x00000a48       0x2d d:/program files (x86)/gnu tools arm embedded/5.4 2016q3/bin/../lib/gcc/arm-none-eabi/5.4.1/../../../../arm-none-eabi/lib/armv7-m\libg_nano.a(lib_a-nano-callocr.o)
 .ARM.attributes
                0x00000a75       0x2d d:/program files (x86)/gnu tools arm embedded/5.4 2016q3/bin/../lib/gcc/arm-none-eabi/5.4.1/../../../../arm-none-eabi/lib/armv7-m\libg_nano.a(lib_a-nano-freer.o)
 .ARM.attributes
                0x00000aa2       0x2d d:/program files (x86)/gnu tools arm embedded/5.4 2016q3/bin/../lib/gcc/arm-none-eabi/5.4.1/../../../../arm-none-eabi/lib/armv7-m\libg_nano.a(lib_a-nano-mallocr.o)
 .ARM.attributes
                0x00000acf       0x2d d:/program files (x86)/gnu tools arm embedded/5.4 2016q3/bin/../lib/gcc/arm-none-eabi/5.4.1/../../../../arm-none-eabi/lib/armv7-m\libg_nano.a(lib_a-nano-vfprintf.o)
 .ARM.attributes
                0x00000afc       0x2d d:/program files (x86)/gnu tools arm embedded/5.4 2016q3/bin/../lib/gcc/arm-none-eabi/5.4.1/../../../../arm-none-eabi/lib/armv7-m\libg_nano.a(lib_a-sbrkr.o)
 .ARM.attributes
                0x00000b29       0x2d d:/program files (x86)/gnu tools arm embedded/5.4 2016q3/bin/../lib/gcc/arm-none-eabi/5.4.1/../../../../arm-none-eabi/lib/armv7-m\libg_nano.a(lib_a-stdio.o)
 .ARM.attributes
                0x00000b56       0x2d d:/program files (x86)/gnu tools arm embedded/5.4 2016q3/bin/../lib/gcc/arm-none-eabi/5.4.1/../../../../arm-none-eabi/lib/armv7-m\libg_nano.a(lib_a-writer.o)
 .ARM.attributes
                0x00000b83       0x2d d:/program files (x86)/gnu tools arm embedded/5.4 2016q3/bin/../lib/gcc/arm-none-eabi/5.4.1/../../../../arm-none-eabi/lib/armv7-m\libg_nano.a(lib_a-closer.o)
 .ARM.attributes
                0x00000bb0       0x2d d:/program files (x86)/gnu tools arm embedded/5.4 2016q3/bin/../lib/gcc/arm-none-eabi/5.4.1/../../../../arm-none-eabi/lib/armv7-m\libg_nano.a(lib_a-fstatr.o)
 .ARM.attributes
                0x00000bdd       0x2d d:/program files (x86)/gnu tools arm embedded/5.4 2016q3/bin/../lib/gcc/arm-none-eabi/5.4.1/../../../../arm-none-eabi/lib/armv7-m\libg_nano.a(lib_a-isattyr.o)
 .ARM.attributes
                0x00000c0a       0x2d d:/program files (x86)/gnu tools arm embedded/5.4 2016q3/bin/../lib/gcc/arm-none-eabi/5.4.1/../../../../arm-none-eabi/lib/armv7-m\libg_nano.a(lib_a-locale.o)
 .ARM.attributes
                0x00000c37       0x2d d:/program files (x86)/gnu tools arm embedded/5.4 2016q3/bin/../lib/gcc/arm-none-eabi/5.4.1/../../../../arm-none-eabi/lib/armv7-m\libg_nano.a(lib_a-lseekr.o)
 .ARM.attributes
                0x00000c64       0x2d d:/program files (x86)/gnu tools arm embedded/5.4 2016q3/bin/../lib/gcc/arm-none-eabi/5.4.1/../../../../arm-none-eabi/lib/armv7-m\libg_nano.a(lib_a-mbtowc_r.o)
 .ARM.attributes
                0x00000c91       0x2d d:/program files (x86)/gnu tools arm embedded/5.4 2016q3/bin/../lib/gcc/arm-none-eabi/5.4.1/../../../../arm-none-eabi/lib/armv7-m\libg_nano.a(lib_a-mlock.o)
 .ARM.attributes
                0x00000cbe       0x2d d:/program files (x86)/gnu tools arm embedded/5.4 2016q3/bin/../lib/gcc/arm-none-eabi/5.4.1/../../../../arm-none-eabi/lib/armv7-m\libg_nano.a(lib_a-readr.o)
 .ARM.attributes
                0x00000ceb       0x2d d:/program files (x86)/gnu tools arm embedded/5.4 2016q3/bin/../lib/gcc/arm-none-eabi/5.4.1/../../../../arm-none-eabi/lib/armv7-m\libg_nano.a(lib_a-reent.o)
 .ARM.attributes
                0x00000d18       0x2d d:/program files (x86)/gnu tools arm embedded/5.4 2016q3/bin/../lib/gcc/arm-none-eabi/5.4.1/../../../../arm-none-eabi/lib/armv7-m\libg_nano.a(lib_a-wctomb_r.o)
 .ARM.attributes
                0x00000d45       0x2d d:/program files (x86)/gnu tools arm embedded/5.4 2016q3/bin/../lib/gcc/arm-none-eabi/5.4.1/../../../../arm-none-eabi/lib/armv7-m\libg_nano.a(lib_a-ctype_.o)
 .ARM.attributes
                0x00000d72       0x1d d:/program files (x86)/gnu tools arm embedded/5.4 2016q3/bin/../lib/gcc/arm-none-eabi/5.4.1/armv7-m\libgcc.a(_arm_cmpdf2.o)
 .ARM.attributes
                0x00000d8f       0x1d d:/program files (x86)/gnu tools arm embedded/5.4 2016q3/bin/../lib/gcc/arm-none-eabi/5.4.1/armv7-m\libgcc.a(_arm_unorddf2.o)
 .ARM.attributes
                0x00000dac       0x1d d:/program files (x86)/gnu tools arm embedded/5.4 2016q3/bin/../lib/gcc/arm-none-eabi/5.4.1/armv7-m\libgcc.a(_arm_fixdfsi.o)
 .ARM.attributes
                0x00000dc9       0x2d d:/program files (x86)/gnu tools arm embedded/5.4 2016q3/bin/../lib/gcc/arm-none-eabi/5.4.1/../../../../arm-none-eabi/lib/armv7-m\libnosys.a(fstat.o)
 .ARM.attributes
                0x00000df6       0x2d d:/program files (x86)/gnu tools arm embedded/5.4 2016q3/bin/../lib/gcc/arm-none-eabi/5.4.1/../../../../arm-none-eabi/lib/armv7-m\libnosys.a(sbrk.o)
 .ARM.attributes
                0x00000e23       0x1d d:/program files (x86)/gnu tools arm embedded/5.4 2016q3/bin/../lib/gcc/arm-none-eabi/5.4.1/armv7-m/crtn.o
OUTPUT(PWM.elf elf32-littlearm)

.debug_info     0x00000000     0xdded
 .debug_info    0x00000000      0x697 CMakeFiles/PWM.elf.dir/HARDWARE/Src/adc.c.obj
 .debug_info    0x00000697      0x253 CMakeFiles/PWM.elf.dir/HARDWARE/Src/beep.c.obj
 .debug_info    0x000008ea      0x46c CMakeFiles/PWM.elf.dir/HARDWARE/Src/dht11.c.obj
 .debug_info    0x00000d56      0x5b6 CMakeFiles/PWM.elf.dir/HARDWARE/Src/exti.c.obj
 .debug_info    0x0000130c      0x2f4 CMakeFiles/PWM.elf.dir/HARDWARE/Src/key.c.obj
 .debug_info    0x00001600      0x253 CMakeFiles/PWM.elf.dir/HARDWARE/Src/led.c.obj
 .debug_info    0x00001853      0x836 CMakeFiles/PWM.elf.dir/HARDWARE/Src/pwm.c.obj
 .debug_info    0x00002089      0xaf9 CMakeFiles/PWM.elf.dir/HARDWARE/Src/rtc.c.obj
 .debug_info    0x00002b82      0x5c9 CMakeFiles/PWM.elf.dir/HARDWARE/Src/spi.c.obj
 .debug_info    0x0000314b      0x853 CMakeFiles/PWM.elf.dir/HARDWARE/Src/timer.c.obj
 .debug_info    0x0000399e      0x931 CMakeFiles/PWM.elf.dir/HARDWARE/Src/w25qxx.c.obj
 .debug_info    0x000042cf      0xe3d CMakeFiles/PWM.elf.dir/OLED/Src/oled.c.obj
 .debug_info    0x0000510c      0x4f8 CMakeFiles/PWM.elf.dir/STM32F10x_FWLib/Src/misc.c.obj
 .debug_info    0x00005604      0xc13 CMakeFiles/PWM.elf.dir/STM32F10x_FWLib/Src/stm32f10x_adc.c.obj
 .debug_info    0x00006217      0x7c4 CMakeFiles/PWM.elf.dir/STM32F10x_FWLib/Src/stm32f10x_bkp.c.obj
 .debug_info    0x000069db      0x33e CMakeFiles/PWM.elf.dir/STM32F10x_FWLib/Src/stm32f10x_exti.c.obj
 .debug_info    0x00006d19      0x879 CMakeFiles/PWM.elf.dir/STM32F10x_FWLib/Src/stm32f10x_gpio.c.obj
 .debug_info    0x00007592      0x48e CMakeFiles/PWM.elf.dir/STM32F10x_FWLib/Src/stm32f10x_pwr.c.obj
 .debug_info    0x00007a20      0x8bf CMakeFiles/PWM.elf.dir/STM32F10x_FWLib/Src/stm32f10x_rcc.c.obj
 .debug_info    0x000082df      0x488 CMakeFiles/PWM.elf.dir/STM32F10x_FWLib/Src/stm32f10x_rtc.c.obj
 .debug_info    0x00008767      0x9b1 CMakeFiles/PWM.elf.dir/STM32F10x_FWLib/Src/stm32f10x_spi.c.obj
 .debug_info    0x00009118     0x2186 CMakeFiles/PWM.elf.dir/STM32F10x_FWLib/Src/stm32f10x_tim.c.obj
 .debug_info    0x0000b29e      0xb0e CMakeFiles/PWM.elf.dir/STM32F10x_FWLib/Src/stm32f10x_usart.c.obj
 .debug_info    0x0000bdac      0x1ff CMakeFiles/PWM.elf.dir/SYSTEM/Src/delay.c.obj
 .debug_info    0x0000bfab     0x10b2 CMakeFiles/PWM.elf.dir/SYSTEM/Src/usart.c.obj
 .debug_info    0x0000d05d       0xb4 CMakeFiles/PWM.elf.dir/Startup/startup_stm32f103rbtx.s.obj
 .debug_info    0x0000d111      0x75d CMakeFiles/PWM.elf.dir/USER/Src/main.c.obj
 .debug_info    0x0000d86e      0x119 CMakeFiles/PWM.elf.dir/USER/Src/stm32f10x_it.c.obj
 .debug_info    0x0000d987      0x466 CMakeFiles/PWM.elf.dir/USER/Src/system_stm32f10x.c.obj

.debug_abbrev   0x00000000     0x2ce1
 .debug_abbrev  0x00000000      0x19a CMakeFiles/PWM.elf.dir/HARDWARE/Src/adc.c.obj
 .debug_abbrev  0x0000019a      0x126 CMakeFiles/PWM.elf.dir/HARDWARE/Src/beep.c.obj
 .debug_abbrev  0x000002c0      0x1c2 CMakeFiles/PWM.elf.dir/HARDWARE/Src/dht11.c.obj
 .debug_abbrev  0x00000482      0x131 CMakeFiles/PWM.elf.dir/HARDWARE/Src/exti.c.obj
 .debug_abbrev  0x000005b3      0x160 CMakeFiles/PWM.elf.dir/HARDWARE/Src/key.c.obj
 .debug_abbrev  0x00000713      0x126 CMakeFiles/PWM.elf.dir/HARDWARE/Src/led.c.obj
 .debug_abbrev  0x00000839      0x153 CMakeFiles/PWM.elf.dir/HARDWARE/Src/pwm.c.obj
 .debug_abbrev  0x0000098c      0x205 CMakeFiles/PWM.elf.dir/HARDWARE/Src/rtc.c.obj
 .debug_abbrev  0x00000b91      0x176 CMakeFiles/PWM.elf.dir/HARDWARE/Src/spi.c.obj
 .debug_abbrev  0x00000d07      0x17a CMakeFiles/PWM.elf.dir/HARDWARE/Src/timer.c.obj
 .debug_abbrev  0x00000e81      0x1ef CMakeFiles/PWM.elf.dir/HARDWARE/Src/w25qxx.c.obj
 .debug_abbrev  0x00001070      0x28c CMakeFiles/PWM.elf.dir/OLED/Src/oled.c.obj
 .debug_abbrev  0x000012fc      0x165 CMakeFiles/PWM.elf.dir/STM32F10x_FWLib/Src/misc.c.obj
 .debug_abbrev  0x00001461      0x1e2 CMakeFiles/PWM.elf.dir/STM32F10x_FWLib/Src/stm32f10x_adc.c.obj
 .debug_abbrev  0x00001643      0x191 CMakeFiles/PWM.elf.dir/STM32F10x_FWLib/Src/stm32f10x_bkp.c.obj
 .debug_abbrev  0x000017d4      0x164 CMakeFiles/PWM.elf.dir/STM32F10x_FWLib/Src/stm32f10x_exti.c.obj
 .debug_abbrev  0x00001938      0x1ed CMakeFiles/PWM.elf.dir/STM32F10x_FWLib/Src/stm32f10x_gpio.c.obj
 .debug_abbrev  0x00001b25      0x1c7 CMakeFiles/PWM.elf.dir/STM32F10x_FWLib/Src/stm32f10x_pwr.c.obj
 .debug_abbrev  0x00001cec      0x1e2 CMakeFiles/PWM.elf.dir/STM32F10x_FWLib/Src/stm32f10x_rcc.c.obj
 .debug_abbrev  0x00001ece      0x18f CMakeFiles/PWM.elf.dir/STM32F10x_FWLib/Src/stm32f10x_rtc.c.obj
 .debug_abbrev  0x0000205d      0x1c8 CMakeFiles/PWM.elf.dir/STM32F10x_FWLib/Src/stm32f10x_spi.c.obj
 .debug_abbrev  0x00002225      0x1dc CMakeFiles/PWM.elf.dir/STM32F10x_FWLib/Src/stm32f10x_tim.c.obj
 .debug_abbrev  0x00002401      0x1c6 CMakeFiles/PWM.elf.dir/STM32F10x_FWLib/Src/stm32f10x_usart.c.obj
 .debug_abbrev  0x000025c7      0x119 CMakeFiles/PWM.elf.dir/SYSTEM/Src/delay.c.obj
 .debug_abbrev  0x000026e0      0x2d5 CMakeFiles/PWM.elf.dir/SYSTEM/Src/usart.c.obj
 .debug_abbrev  0x000029b5       0x12 CMakeFiles/PWM.elf.dir/Startup/startup_stm32f103rbtx.s.obj
 .debug_abbrev  0x000029c7      0x128 CMakeFiles/PWM.elf.dir/USER/Src/main.c.obj
 .debug_abbrev  0x00002aef       0x73 CMakeFiles/PWM.elf.dir/USER/Src/stm32f10x_it.c.obj
 .debug_abbrev  0x00002b62      0x17f CMakeFiles/PWM.elf.dir/USER/Src/system_stm32f10x.c.obj

.debug_loc      0x00000000     0x5d71
 .debug_loc     0x00000000       0xac CMakeFiles/PWM.elf.dir/HARDWARE/Src/adc.c.obj
 .debug_loc     0x000000ac      0x144 CMakeFiles/PWM.elf.dir/HARDWARE/Src/dht11.c.obj
 .debug_loc     0x000001f0       0x42 CMakeFiles/PWM.elf.dir/HARDWARE/Src/pwm.c.obj
 .debug_loc     0x00000232      0x6a7 CMakeFiles/PWM.elf.dir/HARDWARE/Src/rtc.c.obj
 .debug_loc     0x000008d9       0x8e CMakeFiles/PWM.elf.dir/HARDWARE/Src/spi.c.obj
 .debug_loc     0x00000967       0x84 CMakeFiles/PWM.elf.dir/HARDWARE/Src/timer.c.obj
 .debug_loc     0x000009eb      0x3d5 CMakeFiles/PWM.elf.dir/HARDWARE/Src/w25qxx.c.obj
 .debug_loc     0x00000dc0      0x673 CMakeFiles/PWM.elf.dir/OLED/Src/oled.c.obj
 .debug_loc     0x00001433      0x160 CMakeFiles/PWM.elf.dir/STM32F10x_FWLib/Src/misc.c.obj
 .debug_loc     0x00001593      0xa70 CMakeFiles/PWM.elf.dir/STM32F10x_FWLib/Src/stm32f10x_adc.c.obj
 .debug_loc     0x00002003       0xd8 CMakeFiles/PWM.elf.dir/STM32F10x_FWLib/Src/stm32f10x_bkp.c.obj
 .debug_loc     0x000020db      0x164 CMakeFiles/PWM.elf.dir/STM32F10x_FWLib/Src/stm32f10x_exti.c.obj
 .debug_loc     0x0000223f      0x542 CMakeFiles/PWM.elf.dir/STM32F10x_FWLib/Src/stm32f10x_gpio.c.obj
 .debug_loc     0x00002781      0x110 CMakeFiles/PWM.elf.dir/STM32F10x_FWLib/Src/stm32f10x_pwr.c.obj
 .debug_loc     0x00002891      0x692 CMakeFiles/PWM.elf.dir/STM32F10x_FWLib/Src/stm32f10x_rcc.c.obj
 .debug_loc     0x00002f23      0x289 CMakeFiles/PWM.elf.dir/STM32F10x_FWLib/Src/stm32f10x_rtc.c.obj
 .debug_loc     0x000031ac      0x60e CMakeFiles/PWM.elf.dir/STM32F10x_FWLib/Src/stm32f10x_spi.c.obj
 .debug_loc     0x000037ba     0x1aed CMakeFiles/PWM.elf.dir/STM32F10x_FWLib/Src/stm32f10x_tim.c.obj
 .debug_loc     0x000052a7      0x736 CMakeFiles/PWM.elf.dir/STM32F10x_FWLib/Src/stm32f10x_usart.c.obj
 .debug_loc     0x000059dd       0x68 CMakeFiles/PWM.elf.dir/SYSTEM/Src/delay.c.obj
 .debug_loc     0x00005a45      0x24d CMakeFiles/PWM.elf.dir/SYSTEM/Src/usart.c.obj
 .debug_loc     0x00005c92       0xdf CMakeFiles/PWM.elf.dir/USER/Src/system_stm32f10x.c.obj

.debug_aranges  0x00000000      0xe60
 .debug_aranges
                0x00000000       0x30 CMakeFiles/PWM.elf.dir/HARDWARE/Src/adc.c.obj
 .debug_aranges
                0x00000030       0x20 CMakeFiles/PWM.elf.dir/HARDWARE/Src/beep.c.obj
 .debug_aranges
                0x00000050       0x48 CMakeFiles/PWM.elf.dir/HARDWARE/Src/dht11.c.obj
 .debug_aranges
                0x00000098       0x38 CMakeFiles/PWM.elf.dir/HARDWARE/Src/exti.c.obj
 .debug_aranges
                0x000000d0       0x28 CMakeFiles/PWM.elf.dir/HARDWARE/Src/key.c.obj
 .debug_aranges
                0x000000f8       0x20 CMakeFiles/PWM.elf.dir/HARDWARE/Src/led.c.obj
 .debug_aranges
                0x00000118       0x30 CMakeFiles/PWM.elf.dir/HARDWARE/Src/pwm.c.obj
 .debug_aranges
                0x00000148       0x58 CMakeFiles/PWM.elf.dir/HARDWARE/Src/rtc.c.obj
 .debug_aranges
                0x000001a0       0x30 CMakeFiles/PWM.elf.dir/HARDWARE/Src/spi.c.obj
 .debug_aranges
                0x000001d0       0x38 CMakeFiles/PWM.elf.dir/HARDWARE/Src/timer.c.obj
 .debug_aranges
                0x00000208       0x90 CMakeFiles/PWM.elf.dir/HARDWARE/Src/w25qxx.c.obj
 .debug_aranges
                0x00000298       0xb8 CMakeFiles/PWM.elf.dir/OLED/Src/oled.c.obj
 .debug_aranges
                0x00000350       0x40 CMakeFiles/PWM.elf.dir/STM32F10x_FWLib/Src/misc.c.obj
 .debug_aranges
                0x00000390      0x138 CMakeFiles/PWM.elf.dir/STM32F10x_FWLib/Src/stm32f10x_adc.c.obj
 .debug_aranges
                0x000004c8       0x78 CMakeFiles/PWM.elf.dir/STM32F10x_FWLib/Src/stm32f10x_bkp.c.obj
 .debug_aranges
                0x00000540       0x58 CMakeFiles/PWM.elf.dir/STM32F10x_FWLib/Src/stm32f10x_exti.c.obj
 .debug_aranges
                0x00000598       0xa8 CMakeFiles/PWM.elf.dir/STM32F10x_FWLib/Src/stm32f10x_gpio.c.obj
 .debug_aranges
                0x00000640       0x60 CMakeFiles/PWM.elf.dir/STM32F10x_FWLib/Src/stm32f10x_pwr.c.obj
 .debug_aranges
                0x000006a0      0x118 CMakeFiles/PWM.elf.dir/STM32F10x_FWLib/Src/stm32f10x_rcc.c.obj
 .debug_aranges
                0x000007b8       0x88 CMakeFiles/PWM.elf.dir/STM32F10x_FWLib/Src/stm32f10x_rtc.c.obj
 .debug_aranges
                0x00000840       0xd0 CMakeFiles/PWM.elf.dir/STM32F10x_FWLib/Src/stm32f10x_spi.c.obj
 .debug_aranges
                0x00000910      0x2f0 CMakeFiles/PWM.elf.dir/STM32F10x_FWLib/Src/stm32f10x_tim.c.obj
 .debug_aranges
                0x00000c00      0x100 CMakeFiles/PWM.elf.dir/STM32F10x_FWLib/Src/stm32f10x_usart.c.obj
 .debug_aranges
                0x00000d00       0x30 CMakeFiles/PWM.elf.dir/SYSTEM/Src/delay.c.obj
 .debug_aranges
                0x00000d30       0x50 CMakeFiles/PWM.elf.dir/SYSTEM/Src/usart.c.obj
 .debug_aranges
                0x00000d80       0x28 CMakeFiles/PWM.elf.dir/Startup/startup_stm32f103rbtx.s.obj
 .debug_aranges
                0x00000da8       0x20 CMakeFiles/PWM.elf.dir/USER/Src/main.c.obj
 .debug_aranges
                0x00000dc8       0x60 CMakeFiles/PWM.elf.dir/USER/Src/stm32f10x_it.c.obj
 .debug_aranges
                0x00000e28       0x38 CMakeFiles/PWM.elf.dir/USER/Src/system_stm32f10x.c.obj

.debug_ranges   0x00000000      0xcb0
 .debug_ranges  0x00000000       0x20 CMakeFiles/PWM.elf.dir/HARDWARE/Src/adc.c.obj
 .debug_ranges  0x00000020       0x10 CMakeFiles/PWM.elf.dir/HARDWARE/Src/beep.c.obj
 .debug_ranges  0x00000030       0x38 CMakeFiles/PWM.elf.dir/HARDWARE/Src/dht11.c.obj
 .debug_ranges  0x00000068       0x28 CMakeFiles/PWM.elf.dir/HARDWARE/Src/exti.c.obj
 .debug_ranges  0x00000090       0x18 CMakeFiles/PWM.elf.dir/HARDWARE/Src/key.c.obj
 .debug_ranges  0x000000a8       0x10 CMakeFiles/PWM.elf.dir/HARDWARE/Src/led.c.obj
 .debug_ranges  0x000000b8       0x20 CMakeFiles/PWM.elf.dir/HARDWARE/Src/pwm.c.obj
 .debug_ranges  0x000000d8       0x48 CMakeFiles/PWM.elf.dir/HARDWARE/Src/rtc.c.obj
 .debug_ranges  0x00000120       0x20 CMakeFiles/PWM.elf.dir/HARDWARE/Src/spi.c.obj
 .debug_ranges  0x00000140       0x28 CMakeFiles/PWM.elf.dir/HARDWARE/Src/timer.c.obj
 .debug_ranges  0x00000168       0x80 CMakeFiles/PWM.elf.dir/HARDWARE/Src/w25qxx.c.obj
 .debug_ranges  0x000001e8       0xa8 CMakeFiles/PWM.elf.dir/OLED/Src/oled.c.obj
 .debug_ranges  0x00000290       0x30 CMakeFiles/PWM.elf.dir/STM32F10x_FWLib/Src/misc.c.obj
 .debug_ranges  0x000002c0      0x128 CMakeFiles/PWM.elf.dir/STM32F10x_FWLib/Src/stm32f10x_adc.c.obj
 .debug_ranges  0x000003e8       0x68 CMakeFiles/PWM.elf.dir/STM32F10x_FWLib/Src/stm32f10x_bkp.c.obj
 .debug_ranges  0x00000450       0x48 CMakeFiles/PWM.elf.dir/STM32F10x_FWLib/Src/stm32f10x_exti.c.obj
 .debug_ranges  0x00000498       0x98 CMakeFiles/PWM.elf.dir/STM32F10x_FWLib/Src/stm32f10x_gpio.c.obj
 .debug_ranges  0x00000530       0x50 CMakeFiles/PWM.elf.dir/STM32F10x_FWLib/Src/stm32f10x_pwr.c.obj
 .debug_ranges  0x00000580      0x108 CMakeFiles/PWM.elf.dir/STM32F10x_FWLib/Src/stm32f10x_rcc.c.obj
 .debug_ranges  0x00000688       0x78 CMakeFiles/PWM.elf.dir/STM32F10x_FWLib/Src/stm32f10x_rtc.c.obj
 .debug_ranges  0x00000700       0xc0 CMakeFiles/PWM.elf.dir/STM32F10x_FWLib/Src/stm32f10x_spi.c.obj
 .debug_ranges  0x000007c0      0x2e0 CMakeFiles/PWM.elf.dir/STM32F10x_FWLib/Src/stm32f10x_tim.c.obj
 .debug_ranges  0x00000aa0       0xf0 CMakeFiles/PWM.elf.dir/STM32F10x_FWLib/Src/stm32f10x_usart.c.obj
 .debug_ranges  0x00000b90       0x20 CMakeFiles/PWM.elf.dir/SYSTEM/Src/delay.c.obj
 .debug_ranges  0x00000bb0       0x58 CMakeFiles/PWM.elf.dir/SYSTEM/Src/usart.c.obj
 .debug_ranges  0x00000c08       0x20 CMakeFiles/PWM.elf.dir/Startup/startup_stm32f103rbtx.s.obj
 .debug_ranges  0x00000c28       0x10 CMakeFiles/PWM.elf.dir/USER/Src/main.c.obj
 .debug_ranges  0x00000c38       0x50 CMakeFiles/PWM.elf.dir/USER/Src/stm32f10x_it.c.obj
 .debug_ranges  0x00000c88       0x28 CMakeFiles/PWM.elf.dir/USER/Src/system_stm32f10x.c.obj

.debug_line     0x00000000     0x6502
 .debug_line    0x00000000      0x2e9 CMakeFiles/PWM.elf.dir/HARDWARE/Src/adc.c.obj
 .debug_line    0x000002e9      0x239 CMakeFiles/PWM.elf.dir/HARDWARE/Src/beep.c.obj
 .debug_line    0x00000522      0x340 CMakeFiles/PWM.elf.dir/HARDWARE/Src/dht11.c.obj
 .debug_line    0x00000862      0x33f CMakeFiles/PWM.elf.dir/HARDWARE/Src/exti.c.obj
 .debug_line    0x00000ba1      0x2d0 CMakeFiles/PWM.elf.dir/HARDWARE/Src/key.c.obj
 .debug_line    0x00000e71      0x23b CMakeFiles/PWM.elf.dir/HARDWARE/Src/led.c.obj
 .debug_line    0x000010ac      0x2dc CMakeFiles/PWM.elf.dir/HARDWARE/Src/pwm.c.obj
 .debug_line    0x00001388      0x4e2 CMakeFiles/PWM.elf.dir/HARDWARE/Src/rtc.c.obj
 .debug_line    0x0000186a      0x28b CMakeFiles/PWM.elf.dir/HARDWARE/Src/spi.c.obj
 .debug_line    0x00001af5      0x32f CMakeFiles/PWM.elf.dir/HARDWARE/Src/timer.c.obj
 .debug_line    0x00001e24      0x44e CMakeFiles/PWM.elf.dir/HARDWARE/Src/w25qxx.c.obj
 .debug_line    0x00002272      0x4f9 CMakeFiles/PWM.elf.dir/OLED/Src/oled.c.obj
 .debug_line    0x0000276b      0x275 CMakeFiles/PWM.elf.dir/STM32F10x_FWLib/Src/misc.c.obj
 .debug_line    0x000029e0      0x53c CMakeFiles/PWM.elf.dir/STM32F10x_FWLib/Src/stm32f10x_adc.c.obj
 .debug_line    0x00002f1c      0x2fe CMakeFiles/PWM.elf.dir/STM32F10x_FWLib/Src/stm32f10x_bkp.c.obj
 .debug_line    0x0000321a      0x2d5 CMakeFiles/PWM.elf.dir/STM32F10x_FWLib/Src/stm32f10x_exti.c.obj
 .debug_line    0x000034ef      0x3eb CMakeFiles/PWM.elf.dir/STM32F10x_FWLib/Src/stm32f10x_gpio.c.obj
 .debug_line    0x000038da      0x2da CMakeFiles/PWM.elf.dir/STM32F10x_FWLib/Src/stm32f10x_pwr.c.obj
 .debug_line    0x00003bb4      0x4c0 CMakeFiles/PWM.elf.dir/STM32F10x_FWLib/Src/stm32f10x_rcc.c.obj
 .debug_line    0x00004074      0x2e5 CMakeFiles/PWM.elf.dir/STM32F10x_FWLib/Src/stm32f10x_rtc.c.obj
 .debug_line    0x00004359      0x433 CMakeFiles/PWM.elf.dir/STM32F10x_FWLib/Src/stm32f10x_spi.c.obj
 .debug_line    0x0000478c      0xaa9 CMakeFiles/PWM.elf.dir/STM32F10x_FWLib/Src/stm32f10x_tim.c.obj
 .debug_line    0x00005235      0x4a4 CMakeFiles/PWM.elf.dir/STM32F10x_FWLib/Src/stm32f10x_usart.c.obj
 .debug_line    0x000056d9      0x270 CMakeFiles/PWM.elf.dir/SYSTEM/Src/delay.c.obj
 .debug_line    0x00005949      0x3df CMakeFiles/PWM.elf.dir/SYSTEM/Src/usart.c.obj
 .debug_line    0x00005d28       0xad CMakeFiles/PWM.elf.dir/Startup/startup_stm32f103rbtx.s.obj
 .debug_line    0x00005dd5      0x395 CMakeFiles/PWM.elf.dir/USER/Src/main.c.obj
 .debug_line    0x0000616a      0x13b CMakeFiles/PWM.elf.dir/USER/Src/stm32f10x_it.c.obj
 .debug_line    0x000062a5      0x25d CMakeFiles/PWM.elf.dir/USER/Src/system_stm32f10x.c.obj

.debug_str      0x00000000     0x402e
 .debug_str     0x00000000      0x4ef CMakeFiles/PWM.elf.dir/HARDWARE/Src/adc.c.obj
                                0x547 (size before relaxing)
 .debug_str     0x000004ef       0x4d CMakeFiles/PWM.elf.dir/HARDWARE/Src/beep.c.obj
                                0x32f (size before relaxing)
 .debug_str     0x0000053c       0xba CMakeFiles/PWM.elf.dir/HARDWARE/Src/dht11.c.obj
                                0x3b7 (size before relaxing)
 .debug_str     0x000005f6      0x5d8 CMakeFiles/PWM.elf.dir/HARDWARE/Src/exti.c.obj
                                0x79c (size before relaxing)
 .debug_str     0x00000bce       0x52 CMakeFiles/PWM.elf.dir/HARDWARE/Src/key.c.obj
                                0x358 (size before relaxing)
 .debug_str     0x00000c20       0x4b CMakeFiles/PWM.elf.dir/HARDWARE/Src/led.c.obj
                                0x32d (size before relaxing)
 .debug_str     0x00000c6b      0x37f CMakeFiles/PWM.elf.dir/HARDWARE/Src/pwm.c.obj
                                0x673 (size before relaxing)
 .debug_str     0x00000fea      0x2d8 CMakeFiles/PWM.elf.dir/HARDWARE/Src/rtc.c.obj
                                0x911 (size before relaxing)
 .debug_str     0x000012c2      0x183 CMakeFiles/PWM.elf.dir/HARDWARE/Src/spi.c.obj
                                0x501 (size before relaxing)
 .debug_str     0x00001445       0xc8 CMakeFiles/PWM.elf.dir/HARDWARE/Src/timer.c.obj
                                0x8dc (size before relaxing)
 .debug_str     0x0000150d      0x1cf CMakeFiles/PWM.elf.dir/HARDWARE/Src/w25qxx.c.obj
                                0x556 (size before relaxing)
 .debug_str     0x000016dc      0x184 CMakeFiles/PWM.elf.dir/OLED/Src/oled.c.obj
                                0x49b (size before relaxing)
 .debug_str     0x00001860      0x1b1 CMakeFiles/PWM.elf.dir/STM32F10x_FWLib/Src/misc.c.obj
                                0x404 (size before relaxing)
 .debug_str     0x00001a11      0x3d5 CMakeFiles/PWM.elf.dir/STM32F10x_FWLib/Src/stm32f10x_adc.c.obj
                                0x75e (size before relaxing)
 .debug_str     0x00001de6      0x315 CMakeFiles/PWM.elf.dir/STM32F10x_FWLib/Src/stm32f10x_bkp.c.obj
                                0x614 (size before relaxing)
 .debug_str     0x000020fb       0xe9 CMakeFiles/PWM.elf.dir/STM32F10x_FWLib/Src/stm32f10x_exti.c.obj
                                0x395 (size before relaxing)
 .debug_str     0x000021e4      0x230 CMakeFiles/PWM.elf.dir/STM32F10x_FWLib/Src/stm32f10x_gpio.c.obj
                                0x57c (size before relaxing)
 .debug_str     0x00002414      0x135 CMakeFiles/PWM.elf.dir/STM32F10x_FWLib/Src/stm32f10x_pwr.c.obj
                                0x375 (size before relaxing)
 .debug_str     0x00002549      0x3a0 CMakeFiles/PWM.elf.dir/STM32F10x_FWLib/Src/stm32f10x_rcc.c.obj
                                0x666 (size before relaxing)
 .debug_str     0x000028e9       0xf9 CMakeFiles/PWM.elf.dir/STM32F10x_FWLib/Src/stm32f10x_rtc.c.obj
                                0x3fa (size before relaxing)
 .debug_str     0x000029e2      0x27e CMakeFiles/PWM.elf.dir/STM32F10x_FWLib/Src/stm32f10x_spi.c.obj
                                0x689 (size before relaxing)
 .debug_str     0x00002c60      0x907 CMakeFiles/PWM.elf.dir/STM32F10x_FWLib/Src/stm32f10x_tim.c.obj
                                0xe57 (size before relaxing)
 .debug_str     0x00003567      0x43a CMakeFiles/PWM.elf.dir/STM32F10x_FWLib/Src/stm32f10x_usart.c.obj
                                0x71c (size before relaxing)
 .debug_str     0x000039a1       0x6b CMakeFiles/PWM.elf.dir/SYSTEM/Src/delay.c.obj
                                0x24b (size before relaxing)
 .debug_str     0x00003a0c      0x454 CMakeFiles/PWM.elf.dir/SYSTEM/Src/usart.c.obj
                                0xd1e (size before relaxing)
 .debug_str     0x00003e60       0x4b CMakeFiles/PWM.elf.dir/USER/Src/main.c.obj
                                0x3b7 (size before relaxing)
 .debug_str     0x00003eab       0xd7 CMakeFiles/PWM.elf.dir/USER/Src/stm32f10x_it.c.obj
                                0x231 (size before relaxing)
 .debug_str     0x00003f82       0xac CMakeFiles/PWM.elf.dir/USER/Src/system_stm32f10x.c.obj
                                0x321 (size before relaxing)

.comment        0x00000000       0x6e
 .comment       0x00000000       0x6e CMakeFiles/PWM.elf.dir/HARDWARE/Src/adc.c.obj
                                 0x6f (size before relaxing)
 .comment       0x0000006e       0x6f CMakeFiles/PWM.elf.dir/HARDWARE/Src/beep.c.obj
 .comment       0x0000006e       0x6f CMakeFiles/PWM.elf.dir/HARDWARE/Src/dht11.c.obj
 .comment       0x0000006e       0x6f CMakeFiles/PWM.elf.dir/HARDWARE/Src/exti.c.obj
 .comment       0x0000006e       0x6f CMakeFiles/PWM.elf.dir/HARDWARE/Src/key.c.obj
 .comment       0x0000006e       0x6f CMakeFiles/PWM.elf.dir/HARDWARE/Src/led.c.obj
 .comment       0x0000006e       0x6f CMakeFiles/PWM.elf.dir/HARDWARE/Src/pwm.c.obj
 .comment       0x0000006e       0x6f CMakeFiles/PWM.elf.dir/HARDWARE/Src/rtc.c.obj
 .comment       0x0000006e       0x6f CMakeFiles/PWM.elf.dir/HARDWARE/Src/spi.c.obj
 .comment       0x0000006e       0x6f CMakeFiles/PWM.elf.dir/HARDWARE/Src/timer.c.obj
 .comment       0x0000006e       0x6f CMakeFiles/PWM.elf.dir/HARDWARE/Src/w25qxx.c.obj
 .comment       0x0000006e       0x6f CMakeFiles/PWM.elf.dir/OLED/Src/oled.c.obj
 .comment       0x0000006e       0x6f CMakeFiles/PWM.elf.dir/STM32F10x_FWLib/Src/misc.c.obj
 .comment       0x0000006e       0x6f CMakeFiles/PWM.elf.dir/STM32F10x_FWLib/Src/stm32f10x_adc.c.obj
 .comment       0x0000006e       0x6f CMakeFiles/PWM.elf.dir/STM32F10x_FWLib/Src/stm32f10x_bkp.c.obj
 .comment       0x0000006e       0x6f CMakeFiles/PWM.elf.dir/STM32F10x_FWLib/Src/stm32f10x_exti.c.obj
 .comment       0x0000006e       0x6f CMakeFiles/PWM.elf.dir/STM32F10x_FWLib/Src/stm32f10x_gpio.c.obj
 .comment       0x0000006e       0x6f CMakeFiles/PWM.elf.dir/STM32F10x_FWLib/Src/stm32f10x_pwr.c.obj
 .comment       0x0000006e       0x6f CMakeFiles/PWM.elf.dir/STM32F10x_FWLib/Src/stm32f10x_rcc.c.obj
 .comment       0x0000006e       0x6f CMakeFiles/PWM.elf.dir/STM32F10x_FWLib/Src/stm32f10x_rtc.c.obj
 .comment       0x0000006e       0x6f CMakeFiles/PWM.elf.dir/STM32F10x_FWLib/Src/stm32f10x_spi.c.obj
 .comment       0x0000006e       0x6f CMakeFiles/PWM.elf.dir/STM32F10x_FWLib/Src/stm32f10x_tim.c.obj
 .comment       0x0000006e       0x6f CMakeFiles/PWM.elf.dir/STM32F10x_FWLib/Src/stm32f10x_usart.c.obj
 .comment       0x0000006e       0x6f CMakeFiles/PWM.elf.dir/SYSTEM/Src/delay.c.obj
 .comment       0x0000006e       0x6f CMakeFiles/PWM.elf.dir/SYSTEM/Src/usart.c.obj
 .comment       0x0000006e       0x6f CMakeFiles/PWM.elf.dir/USER/Src/main.c.obj
 .comment       0x0000006e       0x6f CMakeFiles/PWM.elf.dir/USER/Src/stm32f10x_it.c.obj
 .comment       0x0000006e       0x6f CMakeFiles/PWM.elf.dir/USER/Src/system_stm32f10x.c.obj

.debug_frame    0x00000000     0x2bcc
 .debug_frame   0x00000000       0x68 CMakeFiles/PWM.elf.dir/HARDWARE/Src/adc.c.obj
 .debug_frame   0x00000068       0x2c CMakeFiles/PWM.elf.dir/HARDWARE/Src/beep.c.obj
 .debug_frame   0x00000094       0xb8 CMakeFiles/PWM.elf.dir/HARDWARE/Src/dht11.c.obj
 .debug_frame   0x0000014c       0x80 CMakeFiles/PWM.elf.dir/HARDWARE/Src/exti.c.obj
 .debug_frame   0x000001cc       0x48 CMakeFiles/PWM.elf.dir/HARDWARE/Src/key.c.obj
 .debug_frame   0x00000214       0x2c CMakeFiles/PWM.elf.dir/HARDWARE/Src/led.c.obj
 .debug_frame   0x00000240       0x60 CMakeFiles/PWM.elf.dir/HARDWARE/Src/pwm.c.obj
 .debug_frame   0x000002a0      0x104 CMakeFiles/PWM.elf.dir/HARDWARE/Src/rtc.c.obj
 .debug_frame   0x000003a4       0x64 CMakeFiles/PWM.elf.dir/HARDWARE/Src/spi.c.obj
 .debug_frame   0x00000408       0x80 CMakeFiles/PWM.elf.dir/HARDWARE/Src/timer.c.obj
 .debug_frame   0x00000488      0x1b0 CMakeFiles/PWM.elf.dir/HARDWARE/Src/w25qxx.c.obj
 .debug_frame   0x00000638      0x214 CMakeFiles/PWM.elf.dir/OLED/Src/oled.c.obj
 .debug_frame   0x0000084c       0x60 CMakeFiles/PWM.elf.dir/STM32F10x_FWLib/Src/misc.c.obj
 .debug_frame   0x000008ac      0x294 CMakeFiles/PWM.elf.dir/STM32F10x_FWLib/Src/stm32f10x_adc.c.obj
 .debug_frame   0x00000b40       0xe8 CMakeFiles/PWM.elf.dir/STM32F10x_FWLib/Src/stm32f10x_bkp.c.obj
 .debug_frame   0x00000c28       0xa4 CMakeFiles/PWM.elf.dir/STM32F10x_FWLib/Src/stm32f10x_exti.c.obj
 .debug_frame   0x00000ccc      0x16c CMakeFiles/PWM.elf.dir/STM32F10x_FWLib/Src/stm32f10x_gpio.c.obj
 .debug_frame   0x00000e38       0xa8 CMakeFiles/PWM.elf.dir/STM32F10x_FWLib/Src/stm32f10x_pwr.c.obj
 .debug_frame   0x00000ee0      0x228 CMakeFiles/PWM.elf.dir/STM32F10x_FWLib/Src/stm32f10x_rcc.c.obj
 .debug_frame   0x00001108      0x108 CMakeFiles/PWM.elf.dir/STM32F10x_FWLib/Src/stm32f10x_rtc.c.obj
 .debug_frame   0x00001210      0x1b8 CMakeFiles/PWM.elf.dir/STM32F10x_FWLib/Src/stm32f10x_spi.c.obj
 .debug_frame   0x000013c8      0x6c4 CMakeFiles/PWM.elf.dir/STM32F10x_FWLib/Src/stm32f10x_tim.c.obj
 .debug_frame   0x00001a8c      0x220 CMakeFiles/PWM.elf.dir/STM32F10x_FWLib/Src/stm32f10x_usart.c.obj
 .debug_frame   0x00001cac       0x48 CMakeFiles/PWM.elf.dir/SYSTEM/Src/delay.c.obj
 .debug_frame   0x00001cf4       0xc4 CMakeFiles/PWM.elf.dir/SYSTEM/Src/usart.c.obj
 .debug_frame   0x00001db8       0x28 CMakeFiles/PWM.elf.dir/USER/Src/main.c.obj
 .debug_frame   0x00001de0       0xa0 CMakeFiles/PWM.elf.dir/USER/Src/stm32f10x_it.c.obj
 .debug_frame   0x00001e80       0x68 CMakeFiles/PWM.elf.dir/USER/Src/system_stm32f10x.c.obj
 .debug_frame   0x00001ee8       0x2c d:/program files (x86)/gnu tools arm embedded/5.4 2016q3/bin/../lib/gcc/arm-none-eabi/5.4.1/../../../../arm-none-eabi/lib/armv7-m\libg_nano.a(lib_a-init.o)
 .debug_frame   0x00001f14       0x20 d:/program files (x86)/gnu tools arm embedded/5.4 2016q3/bin/../lib/gcc/arm-none-eabi/5.4.1/../../../../arm-none-eabi/lib/armv7-m\libg_nano.a(lib_a-memset.o)
 .debug_frame   0x00001f34       0x8c d:/program files (x86)/gnu tools arm embedded/5.4 2016q3/bin/../lib/gcc/arm-none-eabi/5.4.1/../../../../arm-none-eabi/lib/armv7-m\libg_nano.a(lib_a-nano-vfprintf_float.o)
 .debug_frame   0x00001fc0       0x60 d:/program files (x86)/gnu tools arm embedded/5.4 2016q3/bin/../lib/gcc/arm-none-eabi/5.4.1/../../../../arm-none-eabi/lib/armv7-m\libg_nano.a(lib_a-nano-vfprintf_i.o)
 .debug_frame   0x00002020       0x74 d:/program files (x86)/gnu tools arm embedded/5.4 2016q3/bin/../lib/gcc/arm-none-eabi/5.4.1/../../../../arm-none-eabi/lib/armv7-m\libg_nano.a(lib_a-printf.o)
 .debug_frame   0x00002094       0x3c d:/program files (x86)/gnu tools arm embedded/5.4 2016q3/bin/../lib/gcc/arm-none-eabi/5.4.1/../../../../arm-none-eabi/lib/armv7-m\libg_nano.a(lib_a-puts.o)
 .debug_frame   0x000020d0       0x38 d:/program files (x86)/gnu tools arm embedded/5.4 2016q3/bin/../lib/gcc/arm-none-eabi/5.4.1/../../../../arm-none-eabi/lib/armv7-m\libg_nano.a(lib_a-setvbuf.o)
 .debug_frame   0x00002108       0x40 d:/program files (x86)/gnu tools arm embedded/5.4 2016q3/bin/../lib/gcc/arm-none-eabi/5.4.1/../../../../arm-none-eabi/lib/armv7-m\libg_nano.a(lib_a-wbuf.o)
 .debug_frame   0x00002148       0x2c d:/program files (x86)/gnu tools arm embedded/5.4 2016q3/bin/../lib/gcc/arm-none-eabi/5.4.1/../../../../arm-none-eabi/lib/armv7-m\libg_nano.a(lib_a-wsetup.o)
 .debug_frame   0x00002174       0x6c d:/program files (x86)/gnu tools arm embedded/5.4 2016q3/bin/../lib/gcc/arm-none-eabi/5.4.1/../../../../arm-none-eabi/lib/armv7-m\libg_nano.a(lib_a-dtoa.o)
 .debug_frame   0x000021e0       0x68 d:/program files (x86)/gnu tools arm embedded/5.4 2016q3/bin/../lib/gcc/arm-none-eabi/5.4.1/../../../../arm-none-eabi/lib/armv7-m\libg_nano.a(lib_a-fflush.o)
 .debug_frame   0x00002248      0x11c d:/program files (x86)/gnu tools arm embedded/5.4 2016q3/bin/../lib/gcc/arm-none-eabi/5.4.1/../../../../arm-none-eabi/lib/armv7-m\libg_nano.a(lib_a-findfp.o)
 .debug_frame   0x00002364       0x54 d:/program files (x86)/gnu tools arm embedded/5.4 2016q3/bin/../lib/gcc/arm-none-eabi/5.4.1/../../../../arm-none-eabi/lib/armv7-m\libg_nano.a(lib_a-fwalk.o)
 .debug_frame   0x000023b8       0x40 d:/program files (x86)/gnu tools arm embedded/5.4 2016q3/bin/../lib/gcc/arm-none-eabi/5.4.1/../../../../arm-none-eabi/lib/armv7-m\libg_nano.a(lib_a-localeconv.o)
 .debug_frame   0x000023f8       0x54 d:/program files (x86)/gnu tools arm embedded/5.4 2016q3/bin/../lib/gcc/arm-none-eabi/5.4.1/../../../../arm-none-eabi/lib/armv7-m\libg_nano.a(lib_a-makebuf.o)
 .debug_frame   0x0000244c       0x30 d:/program files (x86)/gnu tools arm embedded/5.4 2016q3/bin/../lib/gcc/arm-none-eabi/5.4.1/../../../../arm-none-eabi/lib/armv7-m\libg_nano.a(lib_a-malloc.o)
 .debug_frame   0x0000247c       0x28 d:/program files (x86)/gnu tools arm embedded/5.4 2016q3/bin/../lib/gcc/arm-none-eabi/5.4.1/../../../../arm-none-eabi/lib/armv7-m\libg_nano.a(lib_a-memchr-stub.o)
 .debug_frame   0x000024a4       0x28 d:/program files (x86)/gnu tools arm embedded/5.4 2016q3/bin/../lib/gcc/arm-none-eabi/5.4.1/../../../../arm-none-eabi/lib/armv7-m\libg_nano.a(lib_a-memcpy-stub.o)
 .debug_frame   0x000024cc      0x234 d:/program files (x86)/gnu tools arm embedded/5.4 2016q3/bin/../lib/gcc/arm-none-eabi/5.4.1/../../../../arm-none-eabi/lib/armv7-m\libg_nano.a(lib_a-mprec.o)
 .debug_frame   0x00002700       0x2c d:/program files (x86)/gnu tools arm embedded/5.4 2016q3/bin/../lib/gcc/arm-none-eabi/5.4.1/../../../../arm-none-eabi/lib/armv7-m\libg_nano.a(lib_a-nano-callocr.o)
 .debug_frame   0x0000272c       0x38 d:/program files (x86)/gnu tools arm embedded/5.4 2016q3/bin/../lib/gcc/arm-none-eabi/5.4.1/../../../../arm-none-eabi/lib/armv7-m\libg_nano.a(lib_a-nano-freer.o)
 .debug_frame   0x00002764       0x2c d:/program files (x86)/gnu tools arm embedded/5.4 2016q3/bin/../lib/gcc/arm-none-eabi/5.4.1/../../../../arm-none-eabi/lib/armv7-m\libg_nano.a(lib_a-nano-mallocr.o)
 .debug_frame   0x00002790       0xac d:/program files (x86)/gnu tools arm embedded/5.4 2016q3/bin/../lib/gcc/arm-none-eabi/5.4.1/../../../../arm-none-eabi/lib/armv7-m\libg_nano.a(lib_a-nano-vfprintf.o)
 .debug_frame   0x0000283c       0x2c d:/program files (x86)/gnu tools arm embedded/5.4 2016q3/bin/../lib/gcc/arm-none-eabi/5.4.1/../../../../arm-none-eabi/lib/armv7-m\libg_nano.a(lib_a-sbrkr.o)
 .debug_frame   0x00002868       0x88 d:/program files (x86)/gnu tools arm embedded/5.4 2016q3/bin/../lib/gcc/arm-none-eabi/5.4.1/../../../../arm-none-eabi/lib/armv7-m\libg_nano.a(lib_a-stdio.o)
 .debug_frame   0x000028f0       0x2c d:/program files (x86)/gnu tools arm embedded/5.4 2016q3/bin/../lib/gcc/arm-none-eabi/5.4.1/../../../../arm-none-eabi/lib/armv7-m\libg_nano.a(lib_a-writer.o)
 .debug_frame   0x0000291c       0x2c d:/program files (x86)/gnu tools arm embedded/5.4 2016q3/bin/../lib/gcc/arm-none-eabi/5.4.1/../../../../arm-none-eabi/lib/armv7-m\libg_nano.a(lib_a-closer.o)
 .debug_frame   0x00002948       0x2c d:/program files (x86)/gnu tools arm embedded/5.4 2016q3/bin/../lib/gcc/arm-none-eabi/5.4.1/../../../../arm-none-eabi/lib/armv7-m\libg_nano.a(lib_a-fstatr.o)
 .debug_frame   0x00002974       0x2c d:/program files (x86)/gnu tools arm embedded/5.4 2016q3/bin/../lib/gcc/arm-none-eabi/5.4.1/../../../../arm-none-eabi/lib/armv7-m\libg_nano.a(lib_a-isattyr.o)
 .debug_frame   0x000029a0       0x88 d:/program files (x86)/gnu tools arm embedded/5.4 2016q3/bin/../lib/gcc/arm-none-eabi/5.4.1/../../../../arm-none-eabi/lib/armv7-m\libg_nano.a(lib_a-locale.o)
 .debug_frame   0x00002a28       0x2c d:/program files (x86)/gnu tools arm embedded/5.4 2016q3/bin/../lib/gcc/arm-none-eabi/5.4.1/../../../../arm-none-eabi/lib/armv7-m\libg_nano.a(lib_a-lseekr.o)
 .debug_frame   0x00002a54       0x44 d:/program files (x86)/gnu tools arm embedded/5.4 2016q3/bin/../lib/gcc/arm-none-eabi/5.4.1/../../../../arm-none-eabi/lib/armv7-m\libg_nano.a(lib_a-mbtowc_r.o)
 .debug_frame   0x00002a98       0x30 d:/program files (x86)/gnu tools arm embedded/5.4 2016q3/bin/../lib/gcc/arm-none-eabi/5.4.1/../../../../arm-none-eabi/lib/armv7-m\libg_nano.a(lib_a-mlock.o)
 .debug_frame   0x00002ac8       0x2c d:/program files (x86)/gnu tools arm embedded/5.4 2016q3/bin/../lib/gcc/arm-none-eabi/5.4.1/../../../../arm-none-eabi/lib/armv7-m\libg_nano.a(lib_a-readr.o)
 .debug_frame   0x00002af4       0x5c d:/program files (x86)/gnu tools arm embedded/5.4 2016q3/bin/../lib/gcc/arm-none-eabi/5.4.1/../../../../arm-none-eabi/lib/armv7-m\libg_nano.a(lib_a-reent.o)
 .debug_frame   0x00002b50       0x3c d:/program files (x86)/gnu tools arm embedded/5.4 2016q3/bin/../lib/gcc/arm-none-eabi/5.4.1/../../../../arm-none-eabi/lib/armv7-m\libg_nano.a(lib_a-wctomb_r.o)
 .debug_frame   0x00002b8c       0x20 d:/program files (x86)/gnu tools arm embedded/5.4 2016q3/bin/../lib/gcc/arm-none-eabi/5.4.1/../../../../arm-none-eabi/lib/armv7-m\libnosys.a(fstat.o)
 .debug_frame   0x00002bac       0x20 d:/program files (x86)/gnu tools arm embedded/5.4 2016q3/bin/../lib/gcc/arm-none-eabi/5.4.1/../../../../arm-none-eabi/lib/armv7-m\libnosys.a(sbrk.o)

.stab           0x00000000       0x24
 .stab          0x00000000       0x24 d:/program files (x86)/gnu tools arm embedded/5.4 2016q3/bin/../lib/gcc/arm-none-eabi/5.4.1/../../../../arm-none-eabi/lib/armv7-m\libnosys.a(fstat.o)

.stabstr        0x00000000       0x3f
 .stabstr       0x00000000       0x3f d:/program files (x86)/gnu tools arm embedded/5.4 2016q3/bin/../lib/gcc/arm-none-eabi/5.4.1/../../../../arm-none-eabi/lib/armv7-m\libnosys.a(fstat.o)
